Archive member included to satisfy reference by file (symbol)

/home/jins/bl_iot_sdk/customer_app/tt_app_temperature/build_out/bl602/libbl602.a(start.o)
                              (bl602_start)
/home/jins/bl_iot_sdk/customer_app/tt_app_temperature/build_out/hal_drv/libhal_drv.a(hal_boot2.o)
                              /home/jins/bl_iot_sdk/customer_app/tt_app_temperature/build_out/bl602/libbl602.a(start.o) (hal_boot2_get_flash_addr)
/home/jins/bl_iot_sdk/customer_app/tt_app_temperature/build_out/hal_drv/libhal_drv.a(bl_boot2.o)
                              /home/jins/bl_iot_sdk/customer_app/tt_app_temperature/build_out/hal_drv/libhal_drv.a(hal_boot2.o) (PtTable_Update_Entry)
/home/jins/bl_iot_sdk/customer_app/tt_app_temperature/build_out/hal_drv/libhal_drv.a(bl_flash.o)
                              /home/jins/bl_iot_sdk/customer_app/tt_app_temperature/build_out/hal_drv/libhal_drv.a(bl_boot2.o) (bl_flash_erase)
/home/jins/bl_iot_sdk/customer_app/tt_app_temperature/build_out/tt_app_temperature/libtt_app_temperature.a(main.o)
                              /home/jins/bl_iot_sdk/customer_app/tt_app_temperature/build_out/bl602/libbl602.a(start.o) (bfl_main)
/home/jins/bl_iot_sdk/customer_app/tt_app_temperature/build_out/bl602/libbl602.a(debug.o)
                              /home/jins/bl_iot_sdk/customer_app/tt_app_temperature/build_out/tt_app_temperature/libtt_app_temperature.a(main.o) (printf)
/home/jins/bl_iot_sdk/customer_app/tt_app_temperature/build_out/bl602_std/libbl602_std.a(bl602_common.o)
                              /home/jins/bl_iot_sdk/customer_app/tt_app_temperature/build_out/tt_app_temperature/libtt_app_temperature.a(main.o) (BL602_Delay_US)
/home/jins/bl_iot_sdk/customer_app/tt_app_temperature/build_out/bl602_std/libbl602_std.a(softcrc.o)
                              /home/jins/bl_iot_sdk/customer_app/tt_app_temperature/build_out/hal_drv/libhal_drv.a(bl_boot2.o) (BFLB_Soft_CRC32)
/home/jins/bl_iot_sdk/customer_app/tt_app_temperature/build_out/bl602_std/libbl602_std.a(platform_device.o)
                              /home/jins/bl_iot_sdk/customer_app/tt_app_temperature/build_out/bl602_std/libbl602_std.a(bl602_common.o) (bflb_platform_printf)
/home/jins/bl_iot_sdk/customer_app/tt_app_temperature/build_out/bl602_std/libbl602_std.a(platform_gpio.o)
                              /home/jins/bl_iot_sdk/customer_app/tt_app_temperature/build_out/bl602_std/libbl602_std.a(platform_device.o) (bflb_platform_init_uart_debug_gpio)
/home/jins/bl_iot_sdk/customer_app/tt_app_temperature/build_out/bl602_std/libbl602_std.a(ring_buffer.o)
                              /home/jins/bl_iot_sdk/customer_app/tt_app_temperature/build_out/bl602_std/libbl602_std.a(platform_device.o) (Ring_Buffer_Init)
/home/jins/bl_iot_sdk/customer_app/tt_app_temperature/build_out/bl602_std/libbl602_std.a(interrupt.o)
                              /home/jins/bl_iot_sdk/customer_app/tt_app_temperature/build_out/bl602_std/libbl602_std.a(platform_device.o) (clic_enable_interrupt)
/home/jins/bl_iot_sdk/customer_app/tt_app_temperature/build_out/bl602_std/libbl602_std.a(bl602_romapi.o)
                              /home/jins/bl_iot_sdk/customer_app/tt_app_temperature/build_out/bl602_std/libbl602_std.a(platform_device.o) (GLB_Get_BCLK_Div)
/home/jins/bl_iot_sdk/customer_app/tt_app_temperature/build_out/bl602_std/libbl602_std.a(bl602_uart.o)
                              /home/jins/bl_iot_sdk/customer_app/tt_app_temperature/build_out/bl602_std/libbl602_std.a(platform_device.o) (UART_Init)
/home/jins/bl_iot_sdk/customer_app/tt_app_temperature/build_out/bl602_std/libbl602_std.a(bl602_sec_eng.o)
                              /home/jins/bl_iot_sdk/customer_app/tt_app_temperature/build_out/bl602_std/libbl602_std.a(platform_device.o) (Sec_Eng_Trng_Enable)
/home/jins/bl_iot_sdk/customer_app/tt_app_temperature/build_out/bl602_std/libbl602_std.a(bl602_glb.o)
                              /home/jins/bl_iot_sdk/customer_app/tt_app_temperature/build_out/bl602_std/libbl602_std.a(platform_device.o) (GLB_Set_UART_CLK)
/home/jins/bl_iot_sdk/customer_app/tt_app_temperature/build_out/bl602_std/libbl602_std.a(bl602_hbn.o)
                              /home/jins/bl_iot_sdk/customer_app/tt_app_temperature/build_out/bl602_std/libbl602_std.a(bl602_glb.o) (HBN_Set_UART_CLK_Sel)
/home/jins/bl_iot_sdk/customer_app/tt_app_temperature/build_out/hal_drv/libhal_drv.a(bl_uart.o)
                              /home/jins/bl_iot_sdk/customer_app/tt_app_temperature/build_out/tt_app_temperature/libtt_app_temperature.a(main.o) (bl_uart_init)
/home/jins/bl_iot_sdk/customer_app/tt_app_temperature/build_out/hal_drv/libhal_drv.a(bl_sys.o)
                              /home/jins/bl_iot_sdk/customer_app/tt_app_temperature/build_out/bl602/libbl602.a(debug.o) (sys_log_all_enable)
/home/jins/bl_iot_sdk/customer_app/tt_app_temperature/build_out/hal_drv/libhal_drv.a(bl_irq.o)
                              /home/jins/bl_iot_sdk/customer_app/tt_app_temperature/build_out/hal_drv/libhal_drv.a(bl_uart.o) (bl_irq_enable)
/home/jins/bl_iot_sdk/customer_app/tt_app_temperature/build_out/hal_drv/libhal_drv.a(bl_gpio.o)
                              /home/jins/bl_iot_sdk/customer_app/tt_app_temperature/build_out/tt_app_temperature/libtt_app_temperature.a(main.o) (bl_gpio_enable_output)
/home/jins/bl_iot_sdk/customer_app/tt_app_temperature/build_out/freertos_riscv_ram/libfreertos_riscv_ram.a(misaligned_ldst.o)
                              /home/jins/bl_iot_sdk/customer_app/tt_app_temperature/build_out/hal_drv/libhal_drv.a(bl_irq.o) (misaligned_load_trap)
/home/jins/bl_iot_sdk/customer_app/tt_app_temperature/build_out/freertos_riscv_ram/libfreertos_riscv_ram.a(fp_asm.o)
                              /home/jins/bl_iot_sdk/customer_app/tt_app_temperature/build_out/freertos_riscv_ram/libfreertos_riscv_ram.a(misaligned_ldst.o) (get_f32_reg)
/home/jins/bl_iot_sdk/customer_app/tt_app_temperature/build_out/freertos_riscv_ram/libfreertos_riscv_ram.a(panic_c.o)
                              /home/jins/bl_iot_sdk/customer_app/tt_app_temperature/build_out/hal_drv/libhal_drv.a(bl_irq.o) (backtrace_now)
/home/jins/bl_iot_sdk/customer_app/tt_app_temperature/build_out/freertos_riscv_ram/libfreertos_riscv_ram.a(portASM.o)
                              /home/jins/bl_iot_sdk/customer_app/tt_app_temperature/build_out/hal_drv/libhal_drv.a(bl_sys.o) (freertos_risc_v_trap_handler)
/home/jins/bl_iot_sdk/customer_app/tt_app_temperature/build_out/freertos_riscv_ram/libfreertos_riscv_ram.a(tasks.o)
                              /home/jins/bl_iot_sdk/customer_app/tt_app_temperature/build_out/freertos_riscv_ram/libfreertos_riscv_ram.a(portASM.o) (xTaskIncrementTick)
/home/jins/bl_iot_sdk/customer_app/tt_app_temperature/build_out/freertos_riscv_ram/libfreertos_riscv_ram.a(timers.o)
                              /home/jins/bl_iot_sdk/customer_app/tt_app_temperature/build_out/freertos_riscv_ram/libfreertos_riscv_ram.a(tasks.o) (xTimerCreateTimerTask)
/home/jins/bl_iot_sdk/customer_app/tt_app_temperature/build_out/freertos_riscv_ram/libfreertos_riscv_ram.a(port.o)
                              /home/jins/bl_iot_sdk/customer_app/tt_app_temperature/build_out/freertos_riscv_ram/libfreertos_riscv_ram.a(tasks.o) (xPortStartScheduler)
/home/jins/bl_iot_sdk/customer_app/tt_app_temperature/build_out/freertos_riscv_ram/libfreertos_riscv_ram.a(heap_5.o)
                              /home/jins/bl_iot_sdk/customer_app/tt_app_temperature/build_out/freertos_riscv_ram/libfreertos_riscv_ram.a(tasks.o) (pvPortMalloc)
/home/jins/bl_iot_sdk/customer_app/tt_app_temperature/build_out/freertos_riscv_ram/libfreertos_riscv_ram.a(list.o)
                              /home/jins/bl_iot_sdk/customer_app/tt_app_temperature/build_out/freertos_riscv_ram/libfreertos_riscv_ram.a(tasks.o) (vListInitialise)
/home/jins/bl_iot_sdk/customer_app/tt_app_temperature/build_out/freertos_riscv_ram/libfreertos_riscv_ram.a(queue.o)
                              /home/jins/bl_iot_sdk/customer_app/tt_app_temperature/build_out/freertos_riscv_ram/libfreertos_riscv_ram.a(timers.o) (xQueueGenericCreateStatic)
/home/jins/bl_iot_sdk/customer_app/tt_app_temperature/build_out/bltime/libbltime.a(bl_sys_time.o)
                              /home/jins/bl_iot_sdk/customer_app/tt_app_temperature/build_out/freertos_riscv_ram/libfreertos_riscv_ram.a(tasks.o) (bl_sys_time_sync_state)
/home/jins/bl_iot_sdk/customer_app/tt_app_temperature/build_out/hal_drv/libhal_drv.a(bl_rtc.o)
                              /home/jins/bl_iot_sdk/customer_app/tt_app_temperature/build_out/bltime/libbltime.a(bl_sys_time.o) (bl_rtc_get_timestamp_ms)
/home/jins/bl_iot_sdk/toolchain/riscv/Linux/bin/../lib/gcc/riscv64-unknown-elf/8.3.0/../../../../riscv64-unknown-elf/lib/rv32imf/ilp32f/libm.a(lib_a-s_modf.o)
                              /home/jins/bl_iot_sdk/customer_app/tt_app_temperature/build_out/bl602/libbl602.a(debug.o) (modf)
/home/jins/bl_iot_sdk/toolchain/riscv/Linux/bin/../lib/gcc/riscv64-unknown-elf/8.3.0/rv32imf/ilp32f/libgcc.a(_clzsi2.o)
                              /home/jins/bl_iot_sdk/customer_app/tt_app_temperature/build_out/freertos_riscv_ram/libfreertos_riscv_ram.a(tasks.o) (__clzsi2)
/home/jins/bl_iot_sdk/toolchain/riscv/Linux/bin/../lib/gcc/riscv64-unknown-elf/8.3.0/rv32imf/ilp32f/libgcc.a(_udivdi3.o)
                              /home/jins/bl_iot_sdk/customer_app/tt_app_temperature/build_out/bl602/libbl602.a(debug.o) (__udivdi3)
/home/jins/bl_iot_sdk/toolchain/riscv/Linux/bin/../lib/gcc/riscv64-unknown-elf/8.3.0/rv32imf/ilp32f/libgcc.a(_umoddi3.o)
                              /home/jins/bl_iot_sdk/customer_app/tt_app_temperature/build_out/bl602/libbl602.a(debug.o) (__umoddi3)
/home/jins/bl_iot_sdk/toolchain/riscv/Linux/bin/../lib/gcc/riscv64-unknown-elf/8.3.0/rv32imf/ilp32f/libgcc.a(adddf3.o)
                              /home/jins/bl_iot_sdk/customer_app/tt_app_temperature/build_out/bl602/libbl602.a(debug.o) (__adddf3)
/home/jins/bl_iot_sdk/toolchain/riscv/Linux/bin/../lib/gcc/riscv64-unknown-elf/8.3.0/rv32imf/ilp32f/libgcc.a(divdf3.o)
                              /home/jins/bl_iot_sdk/customer_app/tt_app_temperature/build_out/bl602/libbl602.a(debug.o) (__divdf3)
/home/jins/bl_iot_sdk/toolchain/riscv/Linux/bin/../lib/gcc/riscv64-unknown-elf/8.3.0/rv32imf/ilp32f/libgcc.a(eqdf2.o)
                              /home/jins/bl_iot_sdk/customer_app/tt_app_temperature/build_out/bl602/libbl602.a(debug.o) (__eqdf2)
/home/jins/bl_iot_sdk/toolchain/riscv/Linux/bin/../lib/gcc/riscv64-unknown-elf/8.3.0/rv32imf/ilp32f/libgcc.a(gedf2.o)
                              /home/jins/bl_iot_sdk/customer_app/tt_app_temperature/build_out/bl602/libbl602.a(debug.o) (__gtdf2)
/home/jins/bl_iot_sdk/toolchain/riscv/Linux/bin/../lib/gcc/riscv64-unknown-elf/8.3.0/rv32imf/ilp32f/libgcc.a(ledf2.o)
                              /home/jins/bl_iot_sdk/customer_app/tt_app_temperature/build_out/bl602/libbl602.a(debug.o) (__ltdf2)
/home/jins/bl_iot_sdk/toolchain/riscv/Linux/bin/../lib/gcc/riscv64-unknown-elf/8.3.0/rv32imf/ilp32f/libgcc.a(muldf3.o)
                              /home/jins/bl_iot_sdk/customer_app/tt_app_temperature/build_out/bl602/libbl602.a(debug.o) (__muldf3)
/home/jins/bl_iot_sdk/toolchain/riscv/Linux/bin/../lib/gcc/riscv64-unknown-elf/8.3.0/rv32imf/ilp32f/libgcc.a(subdf3.o)
                              /home/jins/bl_iot_sdk/toolchain/riscv/Linux/bin/../lib/gcc/riscv64-unknown-elf/8.3.0/../../../../riscv64-unknown-elf/lib/rv32imf/ilp32f/libm.a(lib_a-s_modf.o) (__subdf3)
/home/jins/bl_iot_sdk/toolchain/riscv/Linux/bin/../lib/gcc/riscv64-unknown-elf/8.3.0/rv32imf/ilp32f/libgcc.a(fixdfsi.o)
                              /home/jins/bl_iot_sdk/customer_app/tt_app_temperature/build_out/bl602/libbl602.a(debug.o) (__fixdfsi)
/home/jins/bl_iot_sdk/toolchain/riscv/Linux/bin/../lib/gcc/riscv64-unknown-elf/8.3.0/rv32imf/ilp32f/libgcc.a(_clz.o)
                              /home/jins/bl_iot_sdk/toolchain/riscv/Linux/bin/../lib/gcc/riscv64-unknown-elf/8.3.0/rv32imf/ilp32f/libgcc.a(_clzsi2.o) (__clz_tab)
/home/jins/bl_iot_sdk/toolchain/riscv/Linux/bin/../lib/gcc/riscv64-unknown-elf/8.3.0/../../../../riscv64-unknown-elf/lib/rv32imf/ilp32f/libc.a(lib_a-memcpy.o)
                              /home/jins/bl_iot_sdk/customer_app/tt_app_temperature/build_out/hal_drv/libhal_drv.a(bl_boot2.o) (memcpy)
/home/jins/bl_iot_sdk/toolchain/riscv/Linux/bin/../lib/gcc/riscv64-unknown-elf/8.3.0/../../../../riscv64-unknown-elf/lib/rv32imf/ilp32f/libc.a(lib_a-memset.o)
                              /home/jins/bl_iot_sdk/customer_app/tt_app_temperature/build_out/bl602_std/libbl602_std.a(bl602_sec_eng.o) (memset)
/home/jins/bl_iot_sdk/toolchain/riscv/Linux/bin/../lib/gcc/riscv64-unknown-elf/8.3.0/../../../../riscv64-unknown-elf/lib/rv32imf/ilp32f/libc.a(lib_a-strcmp.o)
                              /home/jins/bl_iot_sdk/customer_app/tt_app_temperature/build_out/hal_drv/libhal_drv.a(hal_boot2.o) (strcmp)
/home/jins/bl_iot_sdk/toolchain/riscv/Linux/bin/../lib/gcc/riscv64-unknown-elf/8.3.0/../../../../riscv64-unknown-elf/lib/rv32imf/ilp32f/libc.a(lib_a-strcpy.o)
                              /home/jins/bl_iot_sdk/customer_app/tt_app_temperature/build_out/freertos_riscv_ram/libfreertos_riscv_ram.a(tasks.o) (strcpy)
/home/jins/bl_iot_sdk/toolchain/riscv/Linux/bin/../lib/gcc/riscv64-unknown-elf/8.3.0/../../../../riscv64-unknown-elf/lib/rv32imf/ilp32f/libc.a(lib_a-strlen.o)
                              /home/jins/bl_iot_sdk/customer_app/tt_app_temperature/build_out/bl602/libbl602.a(debug.o) (strlen)
/home/jins/bl_iot_sdk/toolchain/riscv/Linux/bin/../lib/gcc/riscv64-unknown-elf/8.3.0/../../../../riscv64-unknown-elf/lib/rv32imf/ilp32f/libc.a(lib_a-strnlen.o)
                              /home/jins/bl_iot_sdk/customer_app/tt_app_temperature/build_out/bl602/libbl602.a(debug.o) (strnlen)

Allocating common symbols
Common symbol       size              file

xQueueRegistry      0x40              /home/jins/bl_iot_sdk/customer_app/tt_app_temperature/build_out/freertos_riscv_ram/libfreertos_riscv_ram.a(queue.o)

Discarded input sections

 .text          0x0000000000000000        0x0 /home/jins/bl_iot_sdk/customer_app/tt_app_temperature/build_out/bl602/libbl602.a(start.o)
 .data          0x0000000000000000        0x0 /home/jins/bl_iot_sdk/customer_app/tt_app_temperature/build_out/bl602/libbl602.a(start.o)
 .bss           0x0000000000000000        0x0 /home/jins/bl_iot_sdk/customer_app/tt_app_temperature/build_out/bl602/libbl602.a(start.o)
 .eh_frame      0x0000000000000000       0x2c /home/jins/bl_iot_sdk/customer_app/tt_app_temperature/build_out/bl602/libbl602.a(start.o)
 .text          0x0000000000000000        0x0 /home/jins/bl_iot_sdk/customer_app/tt_app_temperature/build_out/hal_drv/libhal_drv.a(hal_boot2.o)
 .data          0x0000000000000000        0x0 /home/jins/bl_iot_sdk/customer_app/tt_app_temperature/build_out/hal_drv/libhal_drv.a(hal_boot2.o)
 .bss           0x0000000000000000        0x0 /home/jins/bl_iot_sdk/customer_app/tt_app_temperature/build_out/hal_drv/libhal_drv.a(hal_boot2.o)
 .text.hal_boot2_set_ptable_opt
                0x0000000000000000        0x8 /home/jins/bl_iot_sdk/customer_app/tt_app_temperature/build_out/hal_drv/libhal_drv.a(hal_boot2.o)
 .text.hal_boot2_update_ptable
                0x0000000000000000       0x3a /home/jins/bl_iot_sdk/customer_app/tt_app_temperature/build_out/hal_drv/libhal_drv.a(hal_boot2.o)
 .text.hal_boot2_partition_bus_addr
                0x0000000000000000      0x17c /home/jins/bl_iot_sdk/customer_app/tt_app_temperature/build_out/hal_drv/libhal_drv.a(hal_boot2.o)
 .text.hal_boot2_partition_bus_addr_active
                0x0000000000000000       0x40 /home/jins/bl_iot_sdk/customer_app/tt_app_temperature/build_out/hal_drv/libhal_drv.a(hal_boot2.o)
 .text.hal_boot2_partition_bus_addr_inactive
                0x0000000000000000       0x40 /home/jins/bl_iot_sdk/customer_app/tt_app_temperature/build_out/hal_drv/libhal_drv.a(hal_boot2.o)
 .text.hal_boot2_partition_addr
                0x0000000000000000       0xc0 /home/jins/bl_iot_sdk/customer_app/tt_app_temperature/build_out/hal_drv/libhal_drv.a(hal_boot2.o)
 .text.hal_boot2_partition_addr_active
                0x0000000000000000       0x40 /home/jins/bl_iot_sdk/customer_app/tt_app_temperature/build_out/hal_drv/libhal_drv.a(hal_boot2.o)
 .text.hal_boot2_partition_addr_inactive
                0x0000000000000000       0x40 /home/jins/bl_iot_sdk/customer_app/tt_app_temperature/build_out/hal_drv/libhal_drv.a(hal_boot2.o)
 .text.hal_boot2_get_active_partition
                0x0000000000000000        0xa /home/jins/bl_iot_sdk/customer_app/tt_app_temperature/build_out/hal_drv/libhal_drv.a(hal_boot2.o)
 .text.hal_boot2_get_active_entries
                0x0000000000000000       0x28 /home/jins/bl_iot_sdk/customer_app/tt_app_temperature/build_out/hal_drv/libhal_drv.a(hal_boot2.o)
 .text.hal_boot2_dump
                0x0000000000000000        0x4 /home/jins/bl_iot_sdk/customer_app/tt_app_temperature/build_out/hal_drv/libhal_drv.a(hal_boot2.o)
 .text.hal_boot2_init
                0x0000000000000000       0x24 /home/jins/bl_iot_sdk/customer_app/tt_app_temperature/build_out/hal_drv/libhal_drv.a(hal_boot2.o)
 .rodata.hal_boot2_partition_bus_addr.str1.4
                0x0000000000000000        0x3 /home/jins/bl_iot_sdk/customer_app/tt_app_temperature/build_out/hal_drv/libhal_drv.a(hal_boot2.o)
 .text          0x0000000000000000        0x0 /home/jins/bl_iot_sdk/customer_app/tt_app_temperature/build_out/hal_drv/libhal_drv.a(bl_boot2.o)
 .data          0x0000000000000000        0x0 /home/jins/bl_iot_sdk/customer_app/tt_app_temperature/build_out/hal_drv/libhal_drv.a(bl_boot2.o)
 .bss           0x0000000000000000        0x0 /home/jins/bl_iot_sdk/customer_app/tt_app_temperature/build_out/hal_drv/libhal_drv.a(bl_boot2.o)
 .text.PtTable_Update_Entry
                0x0000000000000000       0xfc /home/jins/bl_iot_sdk/customer_app/tt_app_temperature/build_out/hal_drv/libhal_drv.a(bl_boot2.o)
 .text.PtTable_Get_Active_Entries
                0x0000000000000000       0x58 /home/jins/bl_iot_sdk/customer_app/tt_app_temperature/build_out/hal_drv/libhal_drv.a(bl_boot2.o)
 .debug_info    0x0000000000000000     0x118e /home/jins/bl_iot_sdk/customer_app/tt_app_temperature/build_out/hal_drv/libhal_drv.a(bl_boot2.o)
 .debug_abbrev  0x0000000000000000      0x26d /home/jins/bl_iot_sdk/customer_app/tt_app_temperature/build_out/hal_drv/libhal_drv.a(bl_boot2.o)
 .debug_loc     0x0000000000000000      0x2df /home/jins/bl_iot_sdk/customer_app/tt_app_temperature/build_out/hal_drv/libhal_drv.a(bl_boot2.o)
 .debug_aranges
                0x0000000000000000       0x28 /home/jins/bl_iot_sdk/customer_app/tt_app_temperature/build_out/hal_drv/libhal_drv.a(bl_boot2.o)
 .debug_ranges  0x0000000000000000       0x18 /home/jins/bl_iot_sdk/customer_app/tt_app_temperature/build_out/hal_drv/libhal_drv.a(bl_boot2.o)
 .debug_line    0x0000000000000000      0x63e /home/jins/bl_iot_sdk/customer_app/tt_app_temperature/build_out/hal_drv/libhal_drv.a(bl_boot2.o)
 .debug_str     0x0000000000000000      0xc54 /home/jins/bl_iot_sdk/customer_app/tt_app_temperature/build_out/hal_drv/libhal_drv.a(bl_boot2.o)
 .comment       0x0000000000000000       0x29 /home/jins/bl_iot_sdk/customer_app/tt_app_temperature/build_out/hal_drv/libhal_drv.a(bl_boot2.o)
 .debug_frame   0x0000000000000000       0x68 /home/jins/bl_iot_sdk/customer_app/tt_app_temperature/build_out/hal_drv/libhal_drv.a(bl_boot2.o)
 .riscv.attributes
                0x0000000000000000       0x2b /home/jins/bl_iot_sdk/customer_app/tt_app_temperature/build_out/hal_drv/libhal_drv.a(bl_boot2.o)
 .text          0x0000000000000000        0x0 /home/jins/bl_iot_sdk/customer_app/tt_app_temperature/build_out/hal_drv/libhal_drv.a(bl_flash.o)
 .data          0x0000000000000000        0x0 /home/jins/bl_iot_sdk/customer_app/tt_app_temperature/build_out/hal_drv/libhal_drv.a(bl_flash.o)
 .bss           0x0000000000000000        0x0 /home/jins/bl_iot_sdk/customer_app/tt_app_temperature/build_out/hal_drv/libhal_drv.a(bl_flash.o)
 .text.bl_flash_erase
                0x0000000000000000       0x30 /home/jins/bl_iot_sdk/customer_app/tt_app_temperature/build_out/hal_drv/libhal_drv.a(bl_flash.o)
 .text.bl_flash_write
                0x0000000000000000       0x32 /home/jins/bl_iot_sdk/customer_app/tt_app_temperature/build_out/hal_drv/libhal_drv.a(bl_flash.o)
 .text.bl_flash_read
                0x0000000000000000       0x32 /home/jins/bl_iot_sdk/customer_app/tt_app_temperature/build_out/hal_drv/libhal_drv.a(bl_flash.o)
 .text.bl_flash_config_update
                0x0000000000000000        0x4 /home/jins/bl_iot_sdk/customer_app/tt_app_temperature/build_out/hal_drv/libhal_drv.a(bl_flash.o)
 .text.bl_flash_get_flashCfg
                0x0000000000000000        0xa /home/jins/bl_iot_sdk/customer_app/tt_app_temperature/build_out/hal_drv/libhal_drv.a(bl_flash.o)
 .text.bl_flash_read_byxip
                0x0000000000000000       0x4a /home/jins/bl_iot_sdk/customer_app/tt_app_temperature/build_out/hal_drv/libhal_drv.a(bl_flash.o)
 .bss.boot2_flashCfg
                0x0000000000000000       0x58 /home/jins/bl_iot_sdk/customer_app/tt_app_temperature/build_out/hal_drv/libhal_drv.a(bl_flash.o)
 .debug_info    0x0000000000000000     0x13e2 /home/jins/bl_iot_sdk/customer_app/tt_app_temperature/build_out/hal_drv/libhal_drv.a(bl_flash.o)
 .debug_abbrev  0x0000000000000000      0x2bf /home/jins/bl_iot_sdk/customer_app/tt_app_temperature/build_out/hal_drv/libhal_drv.a(bl_flash.o)
 .debug_loc     0x0000000000000000      0x295 /home/jins/bl_iot_sdk/customer_app/tt_app_temperature/build_out/hal_drv/libhal_drv.a(bl_flash.o)
 .debug_aranges
                0x0000000000000000       0x48 /home/jins/bl_iot_sdk/customer_app/tt_app_temperature/build_out/hal_drv/libhal_drv.a(bl_flash.o)
 .debug_ranges  0x0000000000000000       0x38 /home/jins/bl_iot_sdk/customer_app/tt_app_temperature/build_out/hal_drv/libhal_drv.a(bl_flash.o)
 .debug_line    0x0000000000000000      0x5db /home/jins/bl_iot_sdk/customer_app/tt_app_temperature/build_out/hal_drv/libhal_drv.a(bl_flash.o)
 .debug_str     0x0000000000000000     0x22a4 /home/jins/bl_iot_sdk/customer_app/tt_app_temperature/build_out/hal_drv/libhal_drv.a(bl_flash.o)
 .comment       0x0000000000000000       0x29 /home/jins/bl_iot_sdk/customer_app/tt_app_temperature/build_out/hal_drv/libhal_drv.a(bl_flash.o)
 .debug_frame   0x0000000000000000       0xa8 /home/jins/bl_iot_sdk/customer_app/tt_app_temperature/build_out/hal_drv/libhal_drv.a(bl_flash.o)
 .riscv.attributes
                0x0000000000000000       0x2b /home/jins/bl_iot_sdk/customer_app/tt_app_temperature/build_out/hal_drv/libhal_drv.a(bl_flash.o)
 .text          0x0000000000000000        0x0 /home/jins/bl_iot_sdk/customer_app/tt_app_temperature/build_out/tt_app_temperature/libtt_app_temperature.a(main.o)
 .data          0x0000000000000000        0x0 /home/jins/bl_iot_sdk/customer_app/tt_app_temperature/build_out/tt_app_temperature/libtt_app_temperature.a(main.o)
 .bss           0x0000000000000000        0x0 /home/jins/bl_iot_sdk/customer_app/tt_app_temperature/build_out/tt_app_temperature/libtt_app_temperature.a(main.o)
 .text          0x0000000000000000        0x0 /home/jins/bl_iot_sdk/customer_app/tt_app_temperature/build_out/bl602/libbl602.a(debug.o)
 .data          0x0000000000000000        0x0 /home/jins/bl_iot_sdk/customer_app/tt_app_temperature/build_out/bl602/libbl602.a(debug.o)
 .bss           0x0000000000000000        0x0 /home/jins/bl_iot_sdk/customer_app/tt_app_temperature/build_out/bl602/libbl602.a(debug.o)
 .text.bl_putchar
                0x0000000000000000       0x1a /home/jins/bl_iot_sdk/customer_app/tt_app_temperature/build_out/bl602/libbl602.a(debug.o)
 .text.puts     0x0000000000000000       0x40 /home/jins/bl_iot_sdk/customer_app/tt_app_temperature/build_out/bl602/libbl602.a(debug.o)
 .text.sprintf  0x0000000000000000       0x26 /home/jins/bl_iot_sdk/customer_app/tt_app_temperature/build_out/bl602/libbl602.a(debug.o)
 .text.snprintf
                0x0000000000000000       0x20 /home/jins/bl_iot_sdk/customer_app/tt_app_temperature/build_out/bl602/libbl602.a(debug.o)
 .text.vMainUARTPrintString
                0x0000000000000000        0x8 /home/jins/bl_iot_sdk/customer_app/tt_app_temperature/build_out/bl602/libbl602.a(debug.o)
 .text          0x0000000000000000        0x0 /home/jins/bl_iot_sdk/customer_app/tt_app_temperature/build_out/bl602_std/libbl602_std.a(bl602_common.o)
 .data          0x0000000000000000        0x0 /home/jins/bl_iot_sdk/customer_app/tt_app_temperature/build_out/bl602_std/libbl602_std.a(bl602_common.o)
 .bss           0x0000000000000000        0x0 /home/jins/bl_iot_sdk/customer_app/tt_app_temperature/build_out/bl602_std/libbl602_std.a(bl602_common.o)
 .tcm_code      0x0000000000000000      0x1d0 /home/jins/bl_iot_sdk/customer_app/tt_app_temperature/build_out/bl602_std/libbl602_std.a(bl602_common.o)
 .text.Trap_Handler
                0x0000000000000000       0xec /home/jins/bl_iot_sdk/customer_app/tt_app_temperature/build_out/bl602_std/libbl602_std.a(bl602_common.o)
 .rodata.Trap_Handler
                0x0000000000000000       0x24 /home/jins/bl_iot_sdk/customer_app/tt_app_temperature/build_out/bl602_std/libbl602_std.a(bl602_common.o)
 .rodata.Trap_Handler.str1.4
                0x0000000000000000      0x12b /home/jins/bl_iot_sdk/customer_app/tt_app_temperature/build_out/bl602_std/libbl602_std.a(bl602_common.o)
 .text          0x0000000000000000        0x0 /home/jins/bl_iot_sdk/customer_app/tt_app_temperature/build_out/bl602_std/libbl602_std.a(softcrc.o)
 .data          0x0000000000000000        0x0 /home/jins/bl_iot_sdk/customer_app/tt_app_temperature/build_out/bl602_std/libbl602_std.a(softcrc.o)
 .bss           0x0000000000000000        0x0 /home/jins/bl_iot_sdk/customer_app/tt_app_temperature/build_out/bl602_std/libbl602_std.a(softcrc.o)
 .text.BFLB_Soft_CRC16
                0x0000000000000000       0x40 /home/jins/bl_iot_sdk/customer_app/tt_app_temperature/build_out/bl602_std/libbl602_std.a(softcrc.o)
 .text.BFLB_Soft_CRC32_Table
                0x0000000000000000       0x2e /home/jins/bl_iot_sdk/customer_app/tt_app_temperature/build_out/bl602_std/libbl602_std.a(softcrc.o)
 .tcm_code      0x0000000000000000       0x34 /home/jins/bl_iot_sdk/customer_app/tt_app_temperature/build_out/bl602_std/libbl602_std.a(softcrc.o)
 .rodata.chCRCHTalbe
                0x0000000000000000      0x100 /home/jins/bl_iot_sdk/customer_app/tt_app_temperature/build_out/bl602_std/libbl602_std.a(softcrc.o)
 .rodata.chCRCLTalbe
                0x0000000000000000      0x100 /home/jins/bl_iot_sdk/customer_app/tt_app_temperature/build_out/bl602_std/libbl602_std.a(softcrc.o)
 .rodata.crc32Tab
                0x0000000000000000      0x400 /home/jins/bl_iot_sdk/customer_app/tt_app_temperature/build_out/bl602_std/libbl602_std.a(softcrc.o)
 .debug_info    0x0000000000000000      0xaea /home/jins/bl_iot_sdk/customer_app/tt_app_temperature/build_out/bl602_std/libbl602_std.a(softcrc.o)
 .debug_abbrev  0x0000000000000000      0x246 /home/jins/bl_iot_sdk/customer_app/tt_app_temperature/build_out/bl602_std/libbl602_std.a(softcrc.o)
 .debug_loc     0x0000000000000000      0x240 /home/jins/bl_iot_sdk/customer_app/tt_app_temperature/build_out/bl602_std/libbl602_std.a(softcrc.o)
 .debug_aranges
                0x0000000000000000       0x30 /home/jins/bl_iot_sdk/customer_app/tt_app_temperature/build_out/bl602_std/libbl602_std.a(softcrc.o)
 .debug_ranges  0x0000000000000000       0x20 /home/jins/bl_iot_sdk/customer_app/tt_app_temperature/build_out/bl602_std/libbl602_std.a(softcrc.o)
 .debug_line    0x0000000000000000      0x407 /home/jins/bl_iot_sdk/customer_app/tt_app_temperature/build_out/bl602_std/libbl602_std.a(softcrc.o)
 .debug_str     0x0000000000000000      0x668 /home/jins/bl_iot_sdk/customer_app/tt_app_temperature/build_out/bl602_std/libbl602_std.a(softcrc.o)
 .comment       0x0000000000000000       0x29 /home/jins/bl_iot_sdk/customer_app/tt_app_temperature/build_out/bl602_std/libbl602_std.a(softcrc.o)
 .debug_frame   0x0000000000000000       0x40 /home/jins/bl_iot_sdk/customer_app/tt_app_temperature/build_out/bl602_std/libbl602_std.a(softcrc.o)
 .riscv.attributes
                0x0000000000000000       0x2b /home/jins/bl_iot_sdk/customer_app/tt_app_temperature/build_out/bl602_std/libbl602_std.a(softcrc.o)
 .text          0x0000000000000000        0x0 /home/jins/bl_iot_sdk/customer_app/tt_app_temperature/build_out/bl602_std/libbl602_std.a(platform_device.o)
 .data          0x0000000000000000        0x0 /home/jins/bl_iot_sdk/customer_app/tt_app_temperature/build_out/bl602_std/libbl602_std.a(platform_device.o)
 .bss           0x0000000000000000        0x0 /home/jins/bl_iot_sdk/customer_app/tt_app_temperature/build_out/bl602_std/libbl602_std.a(platform_device.o)
 .text.bflb_platform_uart_dbg_init
                0x0000000000000000      0x124 /home/jins/bl_iot_sdk/customer_app/tt_app_temperature/build_out/bl602_std/libbl602_std.a(platform_device.o)
 .text.bflb_platform_uart_dbg_deinit
                0x0000000000000000       0x26 /home/jins/bl_iot_sdk/customer_app/tt_app_temperature/build_out/bl602_std/libbl602_std.a(platform_device.o)
 .text.UART_RTO_Cbf.part.0
                0x0000000000000000       0x34 /home/jins/bl_iot_sdk/customer_app/tt_app_temperature/build_out/bl602_std/libbl602_std.a(platform_device.o)
 .text.UART_RFR_Cbf
                0x0000000000000000       0x60 /home/jins/bl_iot_sdk/customer_app/tt_app_temperature/build_out/bl602_std/libbl602_std.a(platform_device.o)
 .text.UART_RTO_Cbf
                0x0000000000000000       0x60 /home/jins/bl_iot_sdk/customer_app/tt_app_temperature/build_out/bl602_std/libbl602_std.a(platform_device.o)
 .text.bflb_platform_dump
                0x0000000000000000       0x68 /home/jins/bl_iot_sdk/customer_app/tt_app_temperature/build_out/bl602_std/libbl602_std.a(platform_device.o)
 .text.bflb_platform_prints
                0x0000000000000000       0x22 /home/jins/bl_iot_sdk/customer_app/tt_app_temperature/build_out/bl602_std/libbl602_std.a(platform_device.o)
 .text.bflb_platform_printx
                0x0000000000000000       0x3e /home/jins/bl_iot_sdk/customer_app/tt_app_temperature/build_out/bl602_std/libbl602_std.a(platform_device.o)
 .text.bflb_platform_printc
                0x0000000000000000       0x1e /home/jins/bl_iot_sdk/customer_app/tt_app_temperature/build_out/bl602_std/libbl602_std.a(platform_device.o)
 .text.bflb_platform_clear_time
                0x0000000000000000       0x12 /home/jins/bl_iot_sdk/customer_app/tt_app_temperature/build_out/bl602_std/libbl602_std.a(platform_device.o)
 .text.bflb_platform_get_time_ms
                0x0000000000000000       0x6c /home/jins/bl_iot_sdk/customer_app/tt_app_temperature/build_out/bl602_std/libbl602_std.a(platform_device.o)
 .text.bflb_platform_start_time
                0x0000000000000000        0x8 /home/jins/bl_iot_sdk/customer_app/tt_app_temperature/build_out/bl602_std/libbl602_std.a(platform_device.o)
 .text.bflb_platform_stop_time
                0x0000000000000000        0x2 /home/jins/bl_iot_sdk/customer_app/tt_app_temperature/build_out/bl602_std/libbl602_std.a(platform_device.o)
 .text.bflb_platform_set_alarm_time
                0x0000000000000000       0x70 /home/jins/bl_iot_sdk/customer_app/tt_app_temperature/build_out/bl602_std/libbl602_std.a(platform_device.o)
 .text.bflb_platform_init_time
                0x0000000000000000       0x28 /home/jins/bl_iot_sdk/customer_app/tt_app_temperature/build_out/bl602_std/libbl602_std.a(platform_device.o)
 .text.bflb_platform_deinit_time
                0x0000000000000000        0xa /home/jins/bl_iot_sdk/customer_app/tt_app_temperature/build_out/bl602_std/libbl602_std.a(platform_device.o)
 .text.bflb_platform_delay_ms
                0x0000000000000000       0x5a /home/jins/bl_iot_sdk/customer_app/tt_app_temperature/build_out/bl602_std/libbl602_std.a(platform_device.o)
 .text.bflb_platform_init
                0x0000000000000000       0x70 /home/jins/bl_iot_sdk/customer_app/tt_app_temperature/build_out/bl602_std/libbl602_std.a(platform_device.o)
 .text.bflb_platform_deinit
                0x0000000000000000       0x44 /home/jins/bl_iot_sdk/customer_app/tt_app_temperature/build_out/bl602_std/libbl602_std.a(platform_device.o)
 .text.bflb_platform_print_set
                0x0000000000000000        0xa /home/jins/bl_iot_sdk/customer_app/tt_app_temperature/build_out/bl602_std/libbl602_std.a(platform_device.o)
 .text.bflb_platform_get_random
                0x0000000000000000       0x62 /home/jins/bl_iot_sdk/customer_app/tt_app_temperature/build_out/bl602_std/libbl602_std.a(platform_device.o)
 .text.bflb_platform_get_input
                0x0000000000000000       0x42 /home/jins/bl_iot_sdk/customer_app/tt_app_temperature/build_out/bl602_std/libbl602_std.a(platform_device.o)
 .rodata        0x0000000000000000       0x10 /home/jins/bl_iot_sdk/customer_app/tt_app_temperature/build_out/bl602_std/libbl602_std.a(platform_device.o)
 .bss.uartBuf   0x0000000000000000       0x40 /home/jins/bl_iot_sdk/customer_app/tt_app_temperature/build_out/bl602_std/libbl602_std.a(platform_device.o)
 .bss.uartRB    0x0000000000000000       0x18 /home/jins/bl_iot_sdk/customer_app/tt_app_temperature/build_out/bl602_std/libbl602_std.a(platform_device.o)
 .rodata.UART_RTO_Cbf.part.0.str1.4
                0x0000000000000000       0x11 /home/jins/bl_iot_sdk/customer_app/tt_app_temperature/build_out/bl602_std/libbl602_std.a(platform_device.o)
 .rodata.bflb_platform_dump.str1.4
                0x0000000000000000        0xa /home/jins/bl_iot_sdk/customer_app/tt_app_temperature/build_out/bl602_std/libbl602_std.a(platform_device.o)
 .rodata.bflb_platform_init.str1.4
                0x0000000000000000       0x13 /home/jins/bl_iot_sdk/customer_app/tt_app_temperature/build_out/bl602_std/libbl602_std.a(platform_device.o)
 .rodata.hexTable
                0x0000000000000000       0x10 /home/jins/bl_iot_sdk/customer_app/tt_app_temperature/build_out/bl602_std/libbl602_std.a(platform_device.o)
 .sbss.init_flag
                0x0000000000000000        0x4 /home/jins/bl_iot_sdk/customer_app/tt_app_temperature/build_out/bl602_std/libbl602_std.a(platform_device.o)
 .sbss.systick_int_cnt
                0x0000000000000000        0x4 /home/jins/bl_iot_sdk/customer_app/tt_app_temperature/build_out/bl602_std/libbl602_std.a(platform_device.o)
 .srodata       0x0000000000000000        0x4 /home/jins/bl_iot_sdk/customer_app/tt_app_temperature/build_out/bl602_std/libbl602_std.a(platform_device.o)
 .text          0x0000000000000000        0x0 /home/jins/bl_iot_sdk/customer_app/tt_app_temperature/build_out/bl602_std/libbl602_std.a(platform_gpio.o)
 .data          0x0000000000000000        0x0 /home/jins/bl_iot_sdk/customer_app/tt_app_temperature/build_out/bl602_std/libbl602_std.a(platform_gpio.o)
 .bss           0x0000000000000000        0x0 /home/jins/bl_iot_sdk/customer_app/tt_app_temperature/build_out/bl602_std/libbl602_std.a(platform_gpio.o)
 .text.bflb_platform_init_uart_debug_gpio
                0x0000000000000000       0x4c /home/jins/bl_iot_sdk/customer_app/tt_app_temperature/build_out/bl602_std/libbl602_std.a(platform_gpio.o)
 .text.bflb_platform_deinit_uart_debug_gpio
                0x0000000000000000       0x5c /home/jins/bl_iot_sdk/customer_app/tt_app_temperature/build_out/bl602_std/libbl602_std.a(platform_gpio.o)
 .debug_info    0x0000000000000000      0xc35 /home/jins/bl_iot_sdk/customer_app/tt_app_temperature/build_out/bl602_std/libbl602_std.a(platform_gpio.o)
 .debug_abbrev  0x0000000000000000      0x23a /home/jins/bl_iot_sdk/customer_app/tt_app_temperature/build_out/bl602_std/libbl602_std.a(platform_gpio.o)
 .debug_aranges
                0x0000000000000000       0x28 /home/jins/bl_iot_sdk/customer_app/tt_app_temperature/build_out/bl602_std/libbl602_std.a(platform_gpio.o)
 .debug_ranges  0x0000000000000000       0x18 /home/jins/bl_iot_sdk/customer_app/tt_app_temperature/build_out/bl602_std/libbl602_std.a(platform_gpio.o)
 .debug_line    0x0000000000000000      0x442 /home/jins/bl_iot_sdk/customer_app/tt_app_temperature/build_out/bl602_std/libbl602_std.a(platform_gpio.o)
 .debug_str     0x0000000000000000      0x9be /home/jins/bl_iot_sdk/customer_app/tt_app_temperature/build_out/bl602_std/libbl602_std.a(platform_gpio.o)
 .comment       0x0000000000000000       0x29 /home/jins/bl_iot_sdk/customer_app/tt_app_temperature/build_out/bl602_std/libbl602_std.a(platform_gpio.o)
 .debug_frame   0x0000000000000000       0x48 /home/jins/bl_iot_sdk/customer_app/tt_app_temperature/build_out/bl602_std/libbl602_std.a(platform_gpio.o)
 .riscv.attributes
                0x0000000000000000       0x2b /home/jins/bl_iot_sdk/customer_app/tt_app_temperature/build_out/bl602_std/libbl602_std.a(platform_gpio.o)
 .text          0x0000000000000000        0x0 /home/jins/bl_iot_sdk/customer_app/tt_app_temperature/build_out/bl602_std/libbl602_std.a(ring_buffer.o)
 .data          0x0000000000000000        0x0 /home/jins/bl_iot_sdk/customer_app/tt_app_temperature/build_out/bl602_std/libbl602_std.a(ring_buffer.o)
 .bss           0x0000000000000000        0x0 /home/jins/bl_iot_sdk/customer_app/tt_app_temperature/build_out/bl602_std/libbl602_std.a(ring_buffer.o)
 .text.Ring_Buffer_Write_Copy
                0x0000000000000000       0x28 /home/jins/bl_iot_sdk/customer_app/tt_app_temperature/build_out/bl602_std/libbl602_std.a(ring_buffer.o)
 .text.Ring_Buffer_Read_Copy
                0x0000000000000000       0x26 /home/jins/bl_iot_sdk/customer_app/tt_app_temperature/build_out/bl602_std/libbl602_std.a(ring_buffer.o)
 .text.Ring_Buffer_Init
                0x0000000000000000       0x1e /home/jins/bl_iot_sdk/customer_app/tt_app_temperature/build_out/bl602_std/libbl602_std.a(ring_buffer.o)
 .text.Ring_Buffer_Reset
                0x0000000000000000       0x14 /home/jins/bl_iot_sdk/customer_app/tt_app_temperature/build_out/bl602_std/libbl602_std.a(ring_buffer.o)
 .text.Ring_Buffer_Get_Length
                0x0000000000000000       0x48 /home/jins/bl_iot_sdk/customer_app/tt_app_temperature/build_out/bl602_std/libbl602_std.a(ring_buffer.o)
 .text.Ring_Buffer_Read_Callback
                0x0000000000000000       0xb2 /home/jins/bl_iot_sdk/customer_app/tt_app_temperature/build_out/bl602_std/libbl602_std.a(ring_buffer.o)
 .text.Ring_Buffer_Read
                0x0000000000000000       0x20 /home/jins/bl_iot_sdk/customer_app/tt_app_temperature/build_out/bl602_std/libbl602_std.a(ring_buffer.o)
 .text.Ring_Buffer_Read_Byte
                0x0000000000000000       0x74 /home/jins/bl_iot_sdk/customer_app/tt_app_temperature/build_out/bl602_std/libbl602_std.a(ring_buffer.o)
 .text.Ring_Buffer_Peek
                0x0000000000000000       0x8c /home/jins/bl_iot_sdk/customer_app/tt_app_temperature/build_out/bl602_std/libbl602_std.a(ring_buffer.o)
 .text.Ring_Buffer_Peek_Byte
                0x0000000000000000       0x4e /home/jins/bl_iot_sdk/customer_app/tt_app_temperature/build_out/bl602_std/libbl602_std.a(ring_buffer.o)
 .text.Ring_Buffer_Get_Empty_Length
                0x0000000000000000       0x22 /home/jins/bl_iot_sdk/customer_app/tt_app_temperature/build_out/bl602_std/libbl602_std.a(ring_buffer.o)
 .text.Ring_Buffer_Write_Callback
                0x0000000000000000       0xb2 /home/jins/bl_iot_sdk/customer_app/tt_app_temperature/build_out/bl602_std/libbl602_std.a(ring_buffer.o)
 .text.Ring_Buffer_Write
                0x0000000000000000       0x20 /home/jins/bl_iot_sdk/customer_app/tt_app_temperature/build_out/bl602_std/libbl602_std.a(ring_buffer.o)
 .text.Ring_Buffer_Write_Byte
                0x0000000000000000       0x70 /home/jins/bl_iot_sdk/customer_app/tt_app_temperature/build_out/bl602_std/libbl602_std.a(ring_buffer.o)
 .text.Ring_Buffer_Write_Force
                0x0000000000000000       0xe2 /home/jins/bl_iot_sdk/customer_app/tt_app_temperature/build_out/bl602_std/libbl602_std.a(ring_buffer.o)
 .text.Ring_Buffer_Get_Status
                0x0000000000000000       0x4a /home/jins/bl_iot_sdk/customer_app/tt_app_temperature/build_out/bl602_std/libbl602_std.a(ring_buffer.o)
 .text.Ring_Buffer_Write_Byte_Force
                0x0000000000000000       0x86 /home/jins/bl_iot_sdk/customer_app/tt_app_temperature/build_out/bl602_std/libbl602_std.a(ring_buffer.o)
 .debug_info    0x0000000000000000     0x1213 /home/jins/bl_iot_sdk/customer_app/tt_app_temperature/build_out/bl602_std/libbl602_std.a(ring_buffer.o)
 .debug_abbrev  0x0000000000000000      0x390 /home/jins/bl_iot_sdk/customer_app/tt_app_temperature/build_out/bl602_std/libbl602_std.a(ring_buffer.o)
 .debug_loc     0x0000000000000000      0x8cc /home/jins/bl_iot_sdk/customer_app/tt_app_temperature/build_out/bl602_std/libbl602_std.a(ring_buffer.o)
 .debug_aranges
                0x0000000000000000       0xa0 /home/jins/bl_iot_sdk/customer_app/tt_app_temperature/build_out/bl602_std/libbl602_std.a(ring_buffer.o)
 .debug_ranges  0x0000000000000000       0x90 /home/jins/bl_iot_sdk/customer_app/tt_app_temperature/build_out/bl602_std/libbl602_std.a(ring_buffer.o)
 .debug_line    0x0000000000000000     0x112f /home/jins/bl_iot_sdk/customer_app/tt_app_temperature/build_out/bl602_std/libbl602_std.a(ring_buffer.o)
 .debug_str     0x0000000000000000      0x91c /home/jins/bl_iot_sdk/customer_app/tt_app_temperature/build_out/bl602_std/libbl602_std.a(ring_buffer.o)
 .comment       0x0000000000000000       0x29 /home/jins/bl_iot_sdk/customer_app/tt_app_temperature/build_out/bl602_std/libbl602_std.a(ring_buffer.o)
 .debug_frame   0x0000000000000000      0x290 /home/jins/bl_iot_sdk/customer_app/tt_app_temperature/build_out/bl602_std/libbl602_std.a(ring_buffer.o)
 .riscv.attributes
                0x0000000000000000       0x2b /home/jins/bl_iot_sdk/customer_app/tt_app_temperature/build_out/bl602_std/libbl602_std.a(ring_buffer.o)
 .text          0x0000000000000000        0x0 /home/jins/bl_iot_sdk/customer_app/tt_app_temperature/build_out/bl602_std/libbl602_std.a(interrupt.o)
 .data          0x0000000000000000        0x0 /home/jins/bl_iot_sdk/customer_app/tt_app_temperature/build_out/bl602_std/libbl602_std.a(interrupt.o)
 .bss           0x0000000000000000        0x0 /home/jins/bl_iot_sdk/customer_app/tt_app_temperature/build_out/bl602_std/libbl602_std.a(interrupt.o)
 .text.Trap_Handler_Stub
                0x0000000000000000      0x100 /home/jins/bl_iot_sdk/customer_app/tt_app_temperature/build_out/bl602_std/libbl602_std.a(interrupt.o)
 .text.clic_enable_interrupt
                0x0000000000000000       0x12 /home/jins/bl_iot_sdk/customer_app/tt_app_temperature/build_out/bl602_std/libbl602_std.a(interrupt.o)
 .text.clic_disable_interrupt
                0x0000000000000000       0x10 /home/jins/bl_iot_sdk/customer_app/tt_app_temperature/build_out/bl602_std/libbl602_std.a(interrupt.o)
 .text.clic_set_pending
                0x0000000000000000        0xe /home/jins/bl_iot_sdk/customer_app/tt_app_temperature/build_out/bl602_std/libbl602_std.a(interrupt.o)
 .text.clic_clear_pending
                0x0000000000000000        0xc /home/jins/bl_iot_sdk/customer_app/tt_app_temperature/build_out/bl602_std/libbl602_std.a(interrupt.o)
 .text.clic_set_intcfg
                0x0000000000000000       0x14 /home/jins/bl_iot_sdk/customer_app/tt_app_temperature/build_out/bl602_std/libbl602_std.a(interrupt.o)
 .text.clic_get_intcfg
                0x0000000000000000       0x10 /home/jins/bl_iot_sdk/customer_app/tt_app_temperature/build_out/bl602_std/libbl602_std.a(interrupt.o)
 .text.clic_set_cliccfg
                0x0000000000000000        0xe /home/jins/bl_iot_sdk/customer_app/tt_app_temperature/build_out/bl602_std/libbl602_std.a(interrupt.o)
 .text.clic_get_cliccfg
                0x0000000000000000        0xa /home/jins/bl_iot_sdk/customer_app/tt_app_temperature/build_out/bl602_std/libbl602_std.a(interrupt.o)
 .text          0x0000000000000000        0x0 /home/jins/bl_iot_sdk/customer_app/tt_app_temperature/build_out/bl602_std/libbl602_std.a(bl602_romapi.o)
 .data          0x0000000000000000        0x0 /home/jins/bl_iot_sdk/customer_app/tt_app_temperature/build_out/bl602_std/libbl602_std.a(bl602_romapi.o)
 .bss           0x0000000000000000        0x0 /home/jins/bl_iot_sdk/customer_app/tt_app_temperature/build_out/bl602_std/libbl602_std.a(bl602_romapi.o)
 .sclock_rlt_code
                0x0000000000000000      0x154 /home/jins/bl_iot_sdk/customer_app/tt_app_temperature/build_out/bl602_std/libbl602_std.a(bl602_romapi.o)
 .text          0x0000000000000000        0x0 /home/jins/bl_iot_sdk/customer_app/tt_app_temperature/build_out/bl602_std/libbl602_std.a(bl602_uart.o)
 .data          0x0000000000000000        0x0 /home/jins/bl_iot_sdk/customer_app/tt_app_temperature/build_out/bl602_std/libbl602_std.a(bl602_uart.o)
 .bss           0x0000000000000000        0x0 /home/jins/bl_iot_sdk/customer_app/tt_app_temperature/build_out/bl602_std/libbl602_std.a(bl602_uart.o)
 .text.UART_DeInit
                0x0000000000000000       0x22 /home/jins/bl_iot_sdk/customer_app/tt_app_temperature/build_out/bl602_std/libbl602_std.a(bl602_uart.o)
 .text.UART_IrConfig
                0x0000000000000000       0x76 /home/jins/bl_iot_sdk/customer_app/tt_app_temperature/build_out/bl602_std/libbl602_std.a(bl602_uart.o)
 .text.UART_SetTxDataLength
                0x0000000000000000       0x20 /home/jins/bl_iot_sdk/customer_app/tt_app_temperature/build_out/bl602_std/libbl602_std.a(bl602_uart.o)
 .text.UART_SetRxDataLength
                0x0000000000000000       0x20 /home/jins/bl_iot_sdk/customer_app/tt_app_temperature/build_out/bl602_std/libbl602_std.a(bl602_uart.o)
 .text.UART_SetRxTimeoutValue
                0x0000000000000000       0x1e /home/jins/bl_iot_sdk/customer_app/tt_app_temperature/build_out/bl602_std/libbl602_std.a(bl602_uart.o)
 .text.UART_SetDeglitchCount
                0x0000000000000000       0x22 /home/jins/bl_iot_sdk/customer_app/tt_app_temperature/build_out/bl602_std/libbl602_std.a(bl602_uart.o)
 .text.UART_SetRtsValue
                0x0000000000000000       0x1a /home/jins/bl_iot_sdk/customer_app/tt_app_temperature/build_out/bl602_std/libbl602_std.a(bl602_uart.o)
 .text.UART_ClrRtsValue
                0x0000000000000000       0x18 /home/jins/bl_iot_sdk/customer_app/tt_app_temperature/build_out/bl602_std/libbl602_std.a(bl602_uart.o)
 .text.UART_AutoBaudDetection
                0x0000000000000000       0x24 /home/jins/bl_iot_sdk/customer_app/tt_app_temperature/build_out/bl602_std/libbl602_std.a(bl602_uart.o)
 .text.UART_TxFifoClear
                0x0000000000000000       0x1e /home/jins/bl_iot_sdk/customer_app/tt_app_temperature/build_out/bl602_std/libbl602_std.a(bl602_uart.o)
 .text.UART_RxFifoClear
                0x0000000000000000       0x1e /home/jins/bl_iot_sdk/customer_app/tt_app_temperature/build_out/bl602_std/libbl602_std.a(bl602_uart.o)
 .text.UART_IntClear
                0x0000000000000000       0x2a /home/jins/bl_iot_sdk/customer_app/tt_app_temperature/build_out/bl602_std/libbl602_std.a(bl602_uart.o)
 .text.UART_Int_Callback_Install
                0x0000000000000000        0x4 /home/jins/bl_iot_sdk/customer_app/tt_app_temperature/build_out/bl602_std/libbl602_std.a(bl602_uart.o)
 .text.UART_GetAutoBaudCount
                0x0000000000000000       0x1a /home/jins/bl_iot_sdk/customer_app/tt_app_temperature/build_out/bl602_std/libbl602_std.a(bl602_uart.o)
 .text.UART_SetBaudrate
                0x0000000000000000       0x30 /home/jins/bl_iot_sdk/customer_app/tt_app_temperature/build_out/bl602_std/libbl602_std.a(bl602_uart.o)
 .text.UART_GetRxFifoCount
                0x0000000000000000       0x1a /home/jins/bl_iot_sdk/customer_app/tt_app_temperature/build_out/bl602_std/libbl602_std.a(bl602_uart.o)
 .text.UART_ReceiveData
                0x0000000000000000       0x56 /home/jins/bl_iot_sdk/customer_app/tt_app_temperature/build_out/bl602_std/libbl602_std.a(bl602_uart.o)
 .text.UART_GetIntStatus
                0x0000000000000000       0x28 /home/jins/bl_iot_sdk/customer_app/tt_app_temperature/build_out/bl602_std/libbl602_std.a(bl602_uart.o)
 .text.UART_GetTxBusBusyStatus
                0x0000000000000000       0x14 /home/jins/bl_iot_sdk/customer_app/tt_app_temperature/build_out/bl602_std/libbl602_std.a(bl602_uart.o)
 .text.UART_SendDataBlock
                0x0000000000000000       0x86 /home/jins/bl_iot_sdk/customer_app/tt_app_temperature/build_out/bl602_std/libbl602_std.a(bl602_uart.o)
 .text.UART_GetRxBusBusyStatus
                0x0000000000000000       0x16 /home/jins/bl_iot_sdk/customer_app/tt_app_temperature/build_out/bl602_std/libbl602_std.a(bl602_uart.o)
 .text.UART_GetOverflowStatus
                0x0000000000000000       0x22 /home/jins/bl_iot_sdk/customer_app/tt_app_temperature/build_out/bl602_std/libbl602_std.a(bl602_uart.o)
 .text          0x0000000000000000        0x0 /home/jins/bl_iot_sdk/customer_app/tt_app_temperature/build_out/bl602_std/libbl602_std.a(bl602_sec_eng.o)
 .data          0x0000000000000000        0x0 /home/jins/bl_iot_sdk/customer_app/tt_app_temperature/build_out/bl602_std/libbl602_std.a(bl602_sec_eng.o)
 .bss           0x0000000000000000        0x0 /home/jins/bl_iot_sdk/customer_app/tt_app_temperature/build_out/bl602_std/libbl602_std.a(bl602_sec_eng.o)
 .text.Sec_Eng_PKA_Write_Common_OP_First_Cfg
                0x0000000000000000       0x38 /home/jins/bl_iot_sdk/customer_app/tt_app_temperature/build_out/bl602_std/libbl602_std.a(bl602_sec_eng.o)
 .text.Sec_Eng_PKA_Wait_ISR
                0x0000000000000000       0x22 /home/jins/bl_iot_sdk/customer_app/tt_app_temperature/build_out/bl602_std/libbl602_std.a(bl602_sec_eng.o)
 .text.Sec_Eng_SHA256_Update.part.0
                0x0000000000000000      0x14e /home/jins/bl_iot_sdk/customer_app/tt_app_temperature/build_out/bl602_std/libbl602_std.a(bl602_sec_eng.o)
 .text.Sec_Eng_SHA256_Init
                0x0000000000000000       0x54 /home/jins/bl_iot_sdk/customer_app/tt_app_temperature/build_out/bl602_std/libbl602_std.a(bl602_sec_eng.o)
 .text.Sec_Eng_SHA_Start
                0x0000000000000000       0x12 /home/jins/bl_iot_sdk/customer_app/tt_app_temperature/build_out/bl602_std/libbl602_std.a(bl602_sec_eng.o)
 .text.Sec_Eng_SHA256_Update
                0x0000000000000000       0x12 /home/jins/bl_iot_sdk/customer_app/tt_app_temperature/build_out/bl602_std/libbl602_std.a(bl602_sec_eng.o)
 .text.Sec_Eng_SHA256_Finish
                0x0000000000000000      0x1f2 /home/jins/bl_iot_sdk/customer_app/tt_app_temperature/build_out/bl602_std/libbl602_std.a(bl602_sec_eng.o)
 .text.Sec_Eng_SHA_Enable_Link
                0x0000000000000000       0x12 /home/jins/bl_iot_sdk/customer_app/tt_app_temperature/build_out/bl602_std/libbl602_std.a(bl602_sec_eng.o)
 .text.Sec_Eng_SHA_Disable_Link
                0x0000000000000000       0x12 /home/jins/bl_iot_sdk/customer_app/tt_app_temperature/build_out/bl602_std/libbl602_std.a(bl602_sec_eng.o)
 .text.Sec_Eng_SHA256_Link_Init
                0x0000000000000000       0x50 /home/jins/bl_iot_sdk/customer_app/tt_app_temperature/build_out/bl602_std/libbl602_std.a(bl602_sec_eng.o)
 .text.Sec_Eng_SHA256_Link_Update
                0x0000000000000000      0x130 /home/jins/bl_iot_sdk/customer_app/tt_app_temperature/build_out/bl602_std/libbl602_std.a(bl602_sec_eng.o)
 .text.Sec_Eng_SHA256_Link_Finish
                0x0000000000000000      0x132 /home/jins/bl_iot_sdk/customer_app/tt_app_temperature/build_out/bl602_std/libbl602_std.a(bl602_sec_eng.o)
 .text.Sec_Eng_AES_Init
                0x0000000000000000       0x60 /home/jins/bl_iot_sdk/customer_app/tt_app_temperature/build_out/bl602_std/libbl602_std.a(bl602_sec_eng.o)
 .text.Sec_Eng_AES_Enable_BE
                0x0000000000000000        0xc /home/jins/bl_iot_sdk/customer_app/tt_app_temperature/build_out/bl602_std/libbl602_std.a(bl602_sec_eng.o)
 .text.Sec_Eng_AES_Enable_LE
                0x0000000000000000        0xa /home/jins/bl_iot_sdk/customer_app/tt_app_temperature/build_out/bl602_std/libbl602_std.a(bl602_sec_eng.o)
 .text.Sec_Eng_AES_Enable_Link
                0x0000000000000000       0x12 /home/jins/bl_iot_sdk/customer_app/tt_app_temperature/build_out/bl602_std/libbl602_std.a(bl602_sec_eng.o)
 .text.Sec_Eng_AES_Disable_Link
                0x0000000000000000       0x14 /home/jins/bl_iot_sdk/customer_app/tt_app_temperature/build_out/bl602_std/libbl602_std.a(bl602_sec_eng.o)
 .text.Sec_Eng_AES_Link_Work
                0x0000000000000000       0x78 /home/jins/bl_iot_sdk/customer_app/tt_app_temperature/build_out/bl602_std/libbl602_std.a(bl602_sec_eng.o)
 .text.Sec_Eng_AES_Set_Hw_Key_Src
                0x0000000000000000       0x12 /home/jins/bl_iot_sdk/customer_app/tt_app_temperature/build_out/bl602_std/libbl602_std.a(bl602_sec_eng.o)
 .text.Sec_Eng_AES_Set_Key_IV
                0x0000000000000000      0x414 /home/jins/bl_iot_sdk/customer_app/tt_app_temperature/build_out/bl602_std/libbl602_std.a(bl602_sec_eng.o)
 .text.Sec_Eng_AES_Set_Key_IV_BE
                0x0000000000000000      0x222 /home/jins/bl_iot_sdk/customer_app/tt_app_temperature/build_out/bl602_std/libbl602_std.a(bl602_sec_eng.o)
 .text.Sec_Eng_AES_Set_Counter_Byte
                0x0000000000000000       0x16 /home/jins/bl_iot_sdk/customer_app/tt_app_temperature/build_out/bl602_std/libbl602_std.a(bl602_sec_eng.o)
 .text.Sec_Eng_AES_Crypt
                0x0000000000000000       0x9c /home/jins/bl_iot_sdk/customer_app/tt_app_temperature/build_out/bl602_std/libbl602_std.a(bl602_sec_eng.o)
 .text.Sec_Eng_AES_Finish
                0x0000000000000000       0x2e /home/jins/bl_iot_sdk/customer_app/tt_app_temperature/build_out/bl602_std/libbl602_std.a(bl602_sec_eng.o)
 .text.Sec_Eng_Trng_Enable
                0x0000000000000000       0x4a /home/jins/bl_iot_sdk/customer_app/tt_app_temperature/build_out/bl602_std/libbl602_std.a(bl602_sec_eng.o)
 .text.Sec_Eng_Trng_Int_Enable
                0x0000000000000000       0x16 /home/jins/bl_iot_sdk/customer_app/tt_app_temperature/build_out/bl602_std/libbl602_std.a(bl602_sec_eng.o)
 .text.Sec_Eng_Trng_Int_Disable
                0x0000000000000000       0x16 /home/jins/bl_iot_sdk/customer_app/tt_app_temperature/build_out/bl602_std/libbl602_std.a(bl602_sec_eng.o)
 .text.Sec_Eng_Trng_Read
                0x0000000000000000      0x180 /home/jins/bl_iot_sdk/customer_app/tt_app_temperature/build_out/bl602_std/libbl602_std.a(bl602_sec_eng.o)
 .text.Sec_Eng_Trng_Int_Read_Trigger
                0x0000000000000000       0x22 /home/jins/bl_iot_sdk/customer_app/tt_app_temperature/build_out/bl602_std/libbl602_std.a(bl602_sec_eng.o)
 .text.Sec_Eng_Trng_Int_Read
                0x0000000000000000      0x150 /home/jins/bl_iot_sdk/customer_app/tt_app_temperature/build_out/bl602_std/libbl602_std.a(bl602_sec_eng.o)
 .text.Sec_Eng_Trng_Disable
                0x0000000000000000       0x14 /home/jins/bl_iot_sdk/customer_app/tt_app_temperature/build_out/bl602_std/libbl602_std.a(bl602_sec_eng.o)
 .text.Sec_Eng_PKA_Reset
                0x0000000000000000       0x10 /home/jins/bl_iot_sdk/customer_app/tt_app_temperature/build_out/bl602_std/libbl602_std.a(bl602_sec_eng.o)
 .text.Sec_Eng_PKA_BigEndian_Enable
                0x0000000000000000       0x12 /home/jins/bl_iot_sdk/customer_app/tt_app_temperature/build_out/bl602_std/libbl602_std.a(bl602_sec_eng.o)
 .text.Sec_Eng_PKA_LittleEndian_Enable
                0x0000000000000000       0x14 /home/jins/bl_iot_sdk/customer_app/tt_app_temperature/build_out/bl602_std/libbl602_std.a(bl602_sec_eng.o)
 .text.Sec_Eng_PKA_Clear_Int
                0x0000000000000000       0x1e /home/jins/bl_iot_sdk/customer_app/tt_app_temperature/build_out/bl602_std/libbl602_std.a(bl602_sec_eng.o)
 .text.Sec_Eng_PKA_Read_Block
                0x0000000000000000       0x18 /home/jins/bl_iot_sdk/customer_app/tt_app_temperature/build_out/bl602_std/libbl602_std.a(bl602_sec_eng.o)
 .text.Sec_Eng_PKA_Write_Block
                0x0000000000000000       0x18 /home/jins/bl_iot_sdk/customer_app/tt_app_temperature/build_out/bl602_std/libbl602_std.a(bl602_sec_eng.o)
 .text.Sec_Eng_PKA_Write_Data
                0x0000000000000000       0x96 /home/jins/bl_iot_sdk/customer_app/tt_app_temperature/build_out/bl602_std/libbl602_std.a(bl602_sec_eng.o)
 .text.Sec_Eng_PKA_Read_Data
                0x0000000000000000       0xa0 /home/jins/bl_iot_sdk/customer_app/tt_app_temperature/build_out/bl602_std/libbl602_std.a(bl602_sec_eng.o)
 .text.Sec_Eng_PKA_CREG
                0x0000000000000000       0x3e /home/jins/bl_iot_sdk/customer_app/tt_app_temperature/build_out/bl602_std/libbl602_std.a(bl602_sec_eng.o)
 .text.Sec_Eng_PKA_Write_Immediate
                0x0000000000000000       0x3c /home/jins/bl_iot_sdk/customer_app/tt_app_temperature/build_out/bl602_std/libbl602_std.a(bl602_sec_eng.o)
 .text.Sec_Eng_PKA_NREG
                0x0000000000000000       0x4a /home/jins/bl_iot_sdk/customer_app/tt_app_temperature/build_out/bl602_std/libbl602_std.a(bl602_sec_eng.o)
 .text.Sec_Eng_PKA_Move_Data
                0x0000000000000000       0x4a /home/jins/bl_iot_sdk/customer_app/tt_app_temperature/build_out/bl602_std/libbl602_std.a(bl602_sec_eng.o)
 .text.Sec_Eng_PKA_RESIZE
                0x0000000000000000       0x4a /home/jins/bl_iot_sdk/customer_app/tt_app_temperature/build_out/bl602_std/libbl602_std.a(bl602_sec_eng.o)
 .text.Sec_Eng_PKA_MADD
                0x0000000000000000       0x7c /home/jins/bl_iot_sdk/customer_app/tt_app_temperature/build_out/bl602_std/libbl602_std.a(bl602_sec_eng.o)
 .text.Sec_Eng_PKA_MSUB
                0x0000000000000000       0x7c /home/jins/bl_iot_sdk/customer_app/tt_app_temperature/build_out/bl602_std/libbl602_std.a(bl602_sec_eng.o)
 .text.Sec_Eng_PKA_MREM
                0x0000000000000000       0x5e /home/jins/bl_iot_sdk/customer_app/tt_app_temperature/build_out/bl602_std/libbl602_std.a(bl602_sec_eng.o)
 .text.Sec_Eng_PKA_MMUL
                0x0000000000000000       0x7c /home/jins/bl_iot_sdk/customer_app/tt_app_temperature/build_out/bl602_std/libbl602_std.a(bl602_sec_eng.o)
 .text.Sec_Eng_PKA_MSQR
                0x0000000000000000       0x5e /home/jins/bl_iot_sdk/customer_app/tt_app_temperature/build_out/bl602_std/libbl602_std.a(bl602_sec_eng.o)
 .text.Sec_Eng_PKA_MEXP
                0x0000000000000000       0x7c /home/jins/bl_iot_sdk/customer_app/tt_app_temperature/build_out/bl602_std/libbl602_std.a(bl602_sec_eng.o)
 .text.Sec_Eng_PKA_MINV
                0x0000000000000000       0x5e /home/jins/bl_iot_sdk/customer_app/tt_app_temperature/build_out/bl602_std/libbl602_std.a(bl602_sec_eng.o)
 .text.Sec_Eng_PKA_LCMP
                0x0000000000000000       0x50 /home/jins/bl_iot_sdk/customer_app/tt_app_temperature/build_out/bl602_std/libbl602_std.a(bl602_sec_eng.o)
 .text.Sec_Eng_PKA_LADD
                0x0000000000000000       0x5e /home/jins/bl_iot_sdk/customer_app/tt_app_temperature/build_out/bl602_std/libbl602_std.a(bl602_sec_eng.o)
 .text.Sec_Eng_PKA_LSUB
                0x0000000000000000       0x5e /home/jins/bl_iot_sdk/customer_app/tt_app_temperature/build_out/bl602_std/libbl602_std.a(bl602_sec_eng.o)
 .text.Sec_Eng_PKA_LMUL
                0x0000000000000000       0x5e /home/jins/bl_iot_sdk/customer_app/tt_app_temperature/build_out/bl602_std/libbl602_std.a(bl602_sec_eng.o)
 .text.Sec_Eng_PKA_LSQR
                0x0000000000000000       0x48 /home/jins/bl_iot_sdk/customer_app/tt_app_temperature/build_out/bl602_std/libbl602_std.a(bl602_sec_eng.o)
 .text.Sec_Eng_PKA_LDIV
                0x0000000000000000       0x5c /home/jins/bl_iot_sdk/customer_app/tt_app_temperature/build_out/bl602_std/libbl602_std.a(bl602_sec_eng.o)
 .text.Sec_Eng_PKA_LMUL2N
                0x0000000000000000       0x54 /home/jins/bl_iot_sdk/customer_app/tt_app_temperature/build_out/bl602_std/libbl602_std.a(bl602_sec_eng.o)
 .text.Sec_Eng_PKA_LDIV2N
                0x0000000000000000       0x54 /home/jins/bl_iot_sdk/customer_app/tt_app_temperature/build_out/bl602_std/libbl602_std.a(bl602_sec_eng.o)
 .text.Sec_Eng_PKA_LMOD2N
                0x0000000000000000       0x52 /home/jins/bl_iot_sdk/customer_app/tt_app_temperature/build_out/bl602_std/libbl602_std.a(bl602_sec_eng.o)
 .text.Sec_Eng_PKA_GF2Mont
                0x0000000000000000       0x54 /home/jins/bl_iot_sdk/customer_app/tt_app_temperature/build_out/bl602_std/libbl602_std.a(bl602_sec_eng.o)
 .text.Sec_Eng_PKA_Mont2GF
                0x0000000000000000       0x52 /home/jins/bl_iot_sdk/customer_app/tt_app_temperature/build_out/bl602_std/libbl602_std.a(bl602_sec_eng.o)
 .text.Sec_Eng_GMAC_Enable_LE
                0x0000000000000000       0x14 /home/jins/bl_iot_sdk/customer_app/tt_app_temperature/build_out/bl602_std/libbl602_std.a(bl602_sec_eng.o)
 .text.Sec_Eng_GMAC_Enable_BE
                0x0000000000000000       0x12 /home/jins/bl_iot_sdk/customer_app/tt_app_temperature/build_out/bl602_std/libbl602_std.a(bl602_sec_eng.o)
 .text.Sec_Eng_GMAC_Enable_Link
                0x0000000000000000       0x12 /home/jins/bl_iot_sdk/customer_app/tt_app_temperature/build_out/bl602_std/libbl602_std.a(bl602_sec_eng.o)
 .text.Sec_Eng_GMAC_Disable_Link
                0x0000000000000000       0x10 /home/jins/bl_iot_sdk/customer_app/tt_app_temperature/build_out/bl602_std/libbl602_std.a(bl602_sec_eng.o)
 .text.Sec_Eng_GMAC_Link_Work
                0x0000000000000000       0x82 /home/jins/bl_iot_sdk/customer_app/tt_app_temperature/build_out/bl602_std/libbl602_std.a(bl602_sec_eng.o)
 .text.SEC_Eng_IntMask
                0x0000000000000000      0x126 /home/jins/bl_iot_sdk/customer_app/tt_app_temperature/build_out/bl602_std/libbl602_std.a(bl602_sec_eng.o)
 .rodata.SEC_Eng_IntMask
                0x0000000000000000       0x1c /home/jins/bl_iot_sdk/customer_app/tt_app_temperature/build_out/bl602_std/libbl602_std.a(bl602_sec_eng.o)
 .text.SEC_Eng_ClrIntStatus
                0x0000000000000000       0x6c /home/jins/bl_iot_sdk/customer_app/tt_app_temperature/build_out/bl602_std/libbl602_std.a(bl602_sec_eng.o)
 .rodata.SEC_Eng_ClrIntStatus
                0x0000000000000000       0x18 /home/jins/bl_iot_sdk/customer_app/tt_app_temperature/build_out/bl602_std/libbl602_std.a(bl602_sec_eng.o)
 .text.SEC_Eng_Int_Callback_Install
                0x0000000000000000        0x2 /home/jins/bl_iot_sdk/customer_app/tt_app_temperature/build_out/bl602_std/libbl602_std.a(bl602_sec_eng.o)
 .text.SEC_Eng_GetIntStatus
                0x0000000000000000       0x4e /home/jins/bl_iot_sdk/customer_app/tt_app_temperature/build_out/bl602_std/libbl602_std.a(bl602_sec_eng.o)
 .rodata.SEC_Eng_GetIntStatus
                0x0000000000000000       0x18 /home/jins/bl_iot_sdk/customer_app/tt_app_temperature/build_out/bl602_std/libbl602_std.a(bl602_sec_eng.o)
 .tcm_code      0x0000000000000000       0x26 /home/jins/bl_iot_sdk/customer_app/tt_app_temperature/build_out/bl602_std/libbl602_std.a(bl602_sec_eng.o)
 .rodata.CSWTCH.116
                0x0000000000000000       0x14 /home/jins/bl_iot_sdk/customer_app/tt_app_temperature/build_out/bl602_std/libbl602_std.a(bl602_sec_eng.o)
 .debug_info    0x0000000000000000     0x40e4 /home/jins/bl_iot_sdk/customer_app/tt_app_temperature/build_out/bl602_std/libbl602_std.a(bl602_sec_eng.o)
 .debug_abbrev  0x0000000000000000      0x53f /home/jins/bl_iot_sdk/customer_app/tt_app_temperature/build_out/bl602_std/libbl602_std.a(bl602_sec_eng.o)
 .debug_loc     0x0000000000000000     0x4c60 /home/jins/bl_iot_sdk/customer_app/tt_app_temperature/build_out/bl602_std/libbl602_std.a(bl602_sec_eng.o)
 .debug_aranges
                0x0000000000000000      0x260 /home/jins/bl_iot_sdk/customer_app/tt_app_temperature/build_out/bl602_std/libbl602_std.a(bl602_sec_eng.o)
 .debug_ranges  0x0000000000000000      0x400 /home/jins/bl_iot_sdk/customer_app/tt_app_temperature/build_out/bl602_std/libbl602_std.a(bl602_sec_eng.o)
 .debug_line    0x0000000000000000     0x5c9d /home/jins/bl_iot_sdk/customer_app/tt_app_temperature/build_out/bl602_std/libbl602_std.a(bl602_sec_eng.o)
 .debug_str     0x0000000000000000     0x17c1 /home/jins/bl_iot_sdk/customer_app/tt_app_temperature/build_out/bl602_std/libbl602_std.a(bl602_sec_eng.o)
 .comment       0x0000000000000000       0x29 /home/jins/bl_iot_sdk/customer_app/tt_app_temperature/build_out/bl602_std/libbl602_std.a(bl602_sec_eng.o)
 .debug_frame   0x0000000000000000      0x88c /home/jins/bl_iot_sdk/customer_app/tt_app_temperature/build_out/bl602_std/libbl602_std.a(bl602_sec_eng.o)
 .riscv.attributes
                0x0000000000000000       0x2b /home/jins/bl_iot_sdk/customer_app/tt_app_temperature/build_out/bl602_std/libbl602_std.a(bl602_sec_eng.o)
 .text          0x0000000000000000        0x0 /home/jins/bl_iot_sdk/customer_app/tt_app_temperature/build_out/bl602_std/libbl602_std.a(bl602_glb.o)
 .data          0x0000000000000000        0x0 /home/jins/bl_iot_sdk/customer_app/tt_app_temperature/build_out/bl602_std/libbl602_std.a(bl602_glb.o)
 .bss           0x0000000000000000        0x0 /home/jins/bl_iot_sdk/customer_app/tt_app_temperature/build_out/bl602_std/libbl602_std.a(bl602_glb.o)
 .sclock_rlt_code
                0x0000000000000000      0x3ae /home/jins/bl_iot_sdk/customer_app/tt_app_temperature/build_out/bl602_std/libbl602_std.a(bl602_glb.o)
 .rodata        0x0000000000000000       0x44 /home/jins/bl_iot_sdk/customer_app/tt_app_temperature/build_out/bl602_std/libbl602_std.a(bl602_glb.o)
 .text.GLB_Set_BLE_CLK
                0x0000000000000000       0x22 /home/jins/bl_iot_sdk/customer_app/tt_app_temperature/build_out/bl602_std/libbl602_std.a(bl602_glb.o)
 .text.GLB_Set_WiFi_Core_CLK
                0x0000000000000000       0x10 /home/jins/bl_iot_sdk/customer_app/tt_app_temperature/build_out/bl602_std/libbl602_std.a(bl602_glb.o)
 .text.GLB_Set_WiFi_Encrypt_CLK
                0x0000000000000000       0x14 /home/jins/bl_iot_sdk/customer_app/tt_app_temperature/build_out/bl602_std/libbl602_std.a(bl602_glb.o)
 .text.GLB_Set_DMA_CLK
                0x0000000000000000       0x30 /home/jins/bl_iot_sdk/customer_app/tt_app_temperature/build_out/bl602_std/libbl602_std.a(bl602_glb.o)
 .text.GLB_Set_IR_CLK
                0x0000000000000000       0x32 /home/jins/bl_iot_sdk/customer_app/tt_app_temperature/build_out/bl602_std/libbl602_std.a(bl602_glb.o)
 .text.GLB_Set_I2C_CLK
                0x0000000000000000       0x32 /home/jins/bl_iot_sdk/customer_app/tt_app_temperature/build_out/bl602_std/libbl602_std.a(bl602_glb.o)
 .text.GLB_Set_SPI_CLK
                0x0000000000000000       0x22 /home/jins/bl_iot_sdk/customer_app/tt_app_temperature/build_out/bl602_std/libbl602_std.a(bl602_glb.o)
 .tcm_code      0x0000000000000000      0x36e /home/jins/bl_iot_sdk/customer_app/tt_app_temperature/build_out/bl602_std/libbl602_std.a(bl602_glb.o)
 .text.GLB_AHB_Slave1_Reset
                0x0000000000000000       0x34 /home/jins/bl_iot_sdk/customer_app/tt_app_temperature/build_out/bl602_std/libbl602_std.a(bl602_glb.o)
 .text.GLB_AHB_Slave1_Clock_Gate
                0x0000000000000000       0x24 /home/jins/bl_iot_sdk/customer_app/tt_app_temperature/build_out/bl602_std/libbl602_std.a(bl602_glb.o)
 .text.GLB_BMX_Init
                0x0000000000000000       0x2a /home/jins/bl_iot_sdk/customer_app/tt_app_temperature/build_out/bl602_std/libbl602_std.a(bl602_glb.o)
 .text.GLB_BMX_Addr_Monitor_Enable
                0x0000000000000000        0xe /home/jins/bl_iot_sdk/customer_app/tt_app_temperature/build_out/bl602_std/libbl602_std.a(bl602_glb.o)
 .text.GLB_BMX_Addr_Monitor_Disable
                0x0000000000000000       0x10 /home/jins/bl_iot_sdk/customer_app/tt_app_temperature/build_out/bl602_std/libbl602_std.a(bl602_glb.o)
 .text.GLB_BMX_BusErrResponse_Enable
                0x0000000000000000       0x10 /home/jins/bl_iot_sdk/customer_app/tt_app_temperature/build_out/bl602_std/libbl602_std.a(bl602_glb.o)
 .text.GLB_BMX_BusErrResponse_Disable
                0x0000000000000000       0x10 /home/jins/bl_iot_sdk/customer_app/tt_app_temperature/build_out/bl602_std/libbl602_std.a(bl602_glb.o)
 .text.GLB_BMX_Get_Status
                0x0000000000000000       0x14 /home/jins/bl_iot_sdk/customer_app/tt_app_temperature/build_out/bl602_std/libbl602_std.a(bl602_glb.o)
 .text.GLB_BMX_Get_Err_Addr
                0x0000000000000000        0x8 /home/jins/bl_iot_sdk/customer_app/tt_app_temperature/build_out/bl602_std/libbl602_std.a(bl602_glb.o)
 .text.BMX_ERR_INT_Callback_Install
                0x0000000000000000        0x4 /home/jins/bl_iot_sdk/customer_app/tt_app_temperature/build_out/bl602_std/libbl602_std.a(bl602_glb.o)
 .text.BMX_TIMEOUT_INT_Callback_Install
                0x0000000000000000        0x4 /home/jins/bl_iot_sdk/customer_app/tt_app_temperature/build_out/bl602_std/libbl602_std.a(bl602_glb.o)
 .text.GLB_Set_SRAM_RET
                0x0000000000000000        0xa /home/jins/bl_iot_sdk/customer_app/tt_app_temperature/build_out/bl602_std/libbl602_std.a(bl602_glb.o)
 .text.GLB_Get_SRAM_RET
                0x0000000000000000        0x8 /home/jins/bl_iot_sdk/customer_app/tt_app_temperature/build_out/bl602_std/libbl602_std.a(bl602_glb.o)
 .text.GLB_Set_SRAM_SLP
                0x0000000000000000        0xa /home/jins/bl_iot_sdk/customer_app/tt_app_temperature/build_out/bl602_std/libbl602_std.a(bl602_glb.o)
 .text.GLB_Get_SRAM_SLP
                0x0000000000000000        0x8 /home/jins/bl_iot_sdk/customer_app/tt_app_temperature/build_out/bl602_std/libbl602_std.a(bl602_glb.o)
 .text.GLB_Set_SRAM_PARM
                0x0000000000000000        0xa /home/jins/bl_iot_sdk/customer_app/tt_app_temperature/build_out/bl602_std/libbl602_std.a(bl602_glb.o)
 .text.GLB_Get_SRAM_PARM
                0x0000000000000000        0x8 /home/jins/bl_iot_sdk/customer_app/tt_app_temperature/build_out/bl602_std/libbl602_std.a(bl602_glb.o)
 .text.GLB_Set_EM_Sel
                0x0000000000000000       0x10 /home/jins/bl_iot_sdk/customer_app/tt_app_temperature/build_out/bl602_std/libbl602_std.a(bl602_glb.o)
 .text.GLB_UART_Sig_Swap_Set
                0x0000000000000000       0x1c /home/jins/bl_iot_sdk/customer_app/tt_app_temperature/build_out/bl602_std/libbl602_std.a(bl602_glb.o)
 .text.GLB_JTAG_Sig_Swap_Set
                0x0000000000000000       0x18 /home/jins/bl_iot_sdk/customer_app/tt_app_temperature/build_out/bl602_std/libbl602_std.a(bl602_glb.o)
 .text.GLB_Swap_SPI_0_MOSI_With_MISO
                0x0000000000000000       0x1a /home/jins/bl_iot_sdk/customer_app/tt_app_temperature/build_out/bl602_std/libbl602_std.a(bl602_glb.o)
 .text.GLB_Set_SPI_0_ACT_MOD_Sel
                0x0000000000000000       0x1a /home/jins/bl_iot_sdk/customer_app/tt_app_temperature/build_out/bl602_std/libbl602_std.a(bl602_glb.o)
 .text.GLB_Set_MTimer_CLK
                0x0000000000000000       0x4a /home/jins/bl_iot_sdk/customer_app/tt_app_temperature/build_out/bl602_std/libbl602_std.a(bl602_glb.o)
 .text.GLB_Set_ADC_CLK
                0x0000000000000000       0x40 /home/jins/bl_iot_sdk/customer_app/tt_app_temperature/build_out/bl602_std/libbl602_std.a(bl602_glb.o)
 .text.GLB_Set_DAC_CLK
                0x0000000000000000       0x4e /home/jins/bl_iot_sdk/customer_app/tt_app_temperature/build_out/bl602_std/libbl602_std.a(bl602_glb.o)
 .text.GLB_Platform_Wakeup_Enable
                0x0000000000000000       0x16 /home/jins/bl_iot_sdk/customer_app/tt_app_temperature/build_out/bl602_std/libbl602_std.a(bl602_glb.o)
 .text.GLB_Platform_Wakeup_Disable
                0x0000000000000000       0x14 /home/jins/bl_iot_sdk/customer_app/tt_app_temperature/build_out/bl602_std/libbl602_std.a(bl602_glb.o)
 .text.GLB_Set_DIG_CLK_Sel
                0x0000000000000000       0x50 /home/jins/bl_iot_sdk/customer_app/tt_app_temperature/build_out/bl602_std/libbl602_std.a(bl602_glb.o)
 .text.GLB_Set_DIG_512K_CLK
                0x0000000000000000       0x50 /home/jins/bl_iot_sdk/customer_app/tt_app_temperature/build_out/bl602_std/libbl602_std.a(bl602_glb.o)
 .text.GLB_Set_DIG_32K_CLK
                0x0000000000000000       0x42 /home/jins/bl_iot_sdk/customer_app/tt_app_temperature/build_out/bl602_std/libbl602_std.a(bl602_glb.o)
 .text.GLB_Set_BT_Coex_Signal
                0x0000000000000000       0x36 /home/jins/bl_iot_sdk/customer_app/tt_app_temperature/build_out/bl602_std/libbl602_std.a(bl602_glb.o)
 .text.GLB_IR_RX_GPIO_Sel
                0x0000000000000000       0x3c /home/jins/bl_iot_sdk/customer_app/tt_app_temperature/build_out/bl602_std/libbl602_std.a(bl602_glb.o)
 .text.GLB_IR_LED_Driver_Enable
                0x0000000000000000       0x16 /home/jins/bl_iot_sdk/customer_app/tt_app_temperature/build_out/bl602_std/libbl602_std.a(bl602_glb.o)
 .text.GLB_IR_LED_Driver_Disable
                0x0000000000000000       0x14 /home/jins/bl_iot_sdk/customer_app/tt_app_temperature/build_out/bl602_std/libbl602_std.a(bl602_glb.o)
 .text.GLB_IR_LED_Driver_Ibias
                0x0000000000000000       0x1c /home/jins/bl_iot_sdk/customer_app/tt_app_temperature/build_out/bl602_std/libbl602_std.a(bl602_glb.o)
 .text.GLB_GPIO_Func_Init
                0x0000000000000000       0x50 /home/jins/bl_iot_sdk/customer_app/tt_app_temperature/build_out/bl602_std/libbl602_std.a(bl602_glb.o)
 .text.GLB_GPIO_Get_Real_Fun
                0x0000000000000000       0x24 /home/jins/bl_iot_sdk/customer_app/tt_app_temperature/build_out/bl602_std/libbl602_std.a(bl602_glb.o)
 .text.GLB_GPIO_IntMask
                0x0000000000000000       0x2e /home/jins/bl_iot_sdk/customer_app/tt_app_temperature/build_out/bl602_std/libbl602_std.a(bl602_glb.o)
 .text.GLB_GPIO_IntClear
                0x0000000000000000       0x2e /home/jins/bl_iot_sdk/customer_app/tt_app_temperature/build_out/bl602_std/libbl602_std.a(bl602_glb.o)
 .text.GLB_Get_GPIO_IntStatus
                0x0000000000000000       0x1e /home/jins/bl_iot_sdk/customer_app/tt_app_temperature/build_out/bl602_std/libbl602_std.a(bl602_glb.o)
 .text.GLB_Clr_GPIO_IntStatus
                0x0000000000000000       0x1e /home/jins/bl_iot_sdk/customer_app/tt_app_temperature/build_out/bl602_std/libbl602_std.a(bl602_glb.o)
 .text.GLB_Set_GPIO_IntMod
                0x0000000000000000       0x84 /home/jins/bl_iot_sdk/customer_app/tt_app_temperature/build_out/bl602_std/libbl602_std.a(bl602_glb.o)
 .text.GLB_Get_GPIO_IntCtlMod
                0x0000000000000000       0x4c /home/jins/bl_iot_sdk/customer_app/tt_app_temperature/build_out/bl602_std/libbl602_std.a(bl602_glb.o)
 .text.GLB_GPIO_INT0_Callback_Install
                0x0000000000000000        0x4 /home/jins/bl_iot_sdk/customer_app/tt_app_temperature/build_out/bl602_std/libbl602_std.a(bl602_glb.o)
 .text          0x0000000000000000        0x0 /home/jins/bl_iot_sdk/customer_app/tt_app_temperature/build_out/bl602_std/libbl602_std.a(bl602_hbn.o)
 .data          0x0000000000000000        0x0 /home/jins/bl_iot_sdk/customer_app/tt_app_temperature/build_out/bl602_std/libbl602_std.a(bl602_hbn.o)
 .bss           0x0000000000000000        0x0 /home/jins/bl_iot_sdk/customer_app/tt_app_temperature/build_out/bl602_std/libbl602_std.a(bl602_hbn.o)
 .tcm_code      0x0000000000000000      0x2be /home/jins/bl_iot_sdk/customer_app/tt_app_temperature/build_out/bl602_std/libbl602_std.a(bl602_hbn.o)
 .text.HBN_App_Reset
                0x0000000000000000       0xb4 /home/jins/bl_iot_sdk/customer_app/tt_app_temperature/build_out/bl602_std/libbl602_std.a(bl602_hbn.o)
 .text.HBN_Disable
                0x0000000000000000       0x10 /home/jins/bl_iot_sdk/customer_app/tt_app_temperature/build_out/bl602_std/libbl602_std.a(bl602_hbn.o)
 .text.HBN_PIR_Enable
                0x0000000000000000       0x10 /home/jins/bl_iot_sdk/customer_app/tt_app_temperature/build_out/bl602_std/libbl602_std.a(bl602_hbn.o)
 .text.HBN_PIR_Disable
                0x0000000000000000       0x10 /home/jins/bl_iot_sdk/customer_app/tt_app_temperature/build_out/bl602_std/libbl602_std.a(bl602_hbn.o)
 .text.HBN_PIR_INT_Config
                0x0000000000000000       0x2c /home/jins/bl_iot_sdk/customer_app/tt_app_temperature/build_out/bl602_std/libbl602_std.a(bl602_hbn.o)
 .text.HBN_PIR_LPF_Sel
                0x0000000000000000       0x12 /home/jins/bl_iot_sdk/customer_app/tt_app_temperature/build_out/bl602_std/libbl602_std.a(bl602_hbn.o)
 .text.HBN_PIR_HPF_Sel
                0x0000000000000000       0x10 /home/jins/bl_iot_sdk/customer_app/tt_app_temperature/build_out/bl602_std/libbl602_std.a(bl602_hbn.o)
 .text.HBN_Set_PIR_Threshold
                0x0000000000000000       0x12 /home/jins/bl_iot_sdk/customer_app/tt_app_temperature/build_out/bl602_std/libbl602_std.a(bl602_hbn.o)
 .text.HBN_Get_PIR_Threshold
                0x0000000000000000        0xc /home/jins/bl_iot_sdk/customer_app/tt_app_temperature/build_out/bl602_std/libbl602_std.a(bl602_hbn.o)
 .text.HBN_Set_PIR_Interval
                0x0000000000000000       0x12 /home/jins/bl_iot_sdk/customer_app/tt_app_temperature/build_out/bl602_std/libbl602_std.a(bl602_hbn.o)
 .text.HBN_Get_PIR_Interval
                0x0000000000000000        0xc /home/jins/bl_iot_sdk/customer_app/tt_app_temperature/build_out/bl602_std/libbl602_std.a(bl602_hbn.o)
 .text.HBN_Get_BOR_OUT_State
                0x0000000000000000        0xc /home/jins/bl_iot_sdk/customer_app/tt_app_temperature/build_out/bl602_std/libbl602_std.a(bl602_hbn.o)
 .text.HBN_Set_BOR_Config
                0x0000000000000000       0x22 /home/jins/bl_iot_sdk/customer_app/tt_app_temperature/build_out/bl602_std/libbl602_std.a(bl602_hbn.o)
 .text.HBN_Set_Ldo11_All_Vout
                0x0000000000000000       0x30 /home/jins/bl_iot_sdk/customer_app/tt_app_temperature/build_out/bl602_std/libbl602_std.a(bl602_hbn.o)
 .text.HBN_Set_XCLK_CLK_Sel
                0x0000000000000000       0x3c /home/jins/bl_iot_sdk/customer_app/tt_app_temperature/build_out/bl602_std/libbl602_std.a(bl602_hbn.o)
 .sclock_rlt_code
                0x0000000000000000      0x14e /home/jins/bl_iot_sdk/customer_app/tt_app_temperature/build_out/bl602_std/libbl602_std.a(bl602_hbn.o)
 .text.HBN_Set_HRAM_slp
                0x0000000000000000       0x14 /home/jins/bl_iot_sdk/customer_app/tt_app_temperature/build_out/bl602_std/libbl602_std.a(bl602_hbn.o)
 .text.HBN_Set_HRAM_Ret
                0x0000000000000000       0x14 /home/jins/bl_iot_sdk/customer_app/tt_app_temperature/build_out/bl602_std/libbl602_std.a(bl602_hbn.o)
 .text.HBN_Get_Status_Flag
                0x0000000000000000        0xa /home/jins/bl_iot_sdk/customer_app/tt_app_temperature/build_out/bl602_std/libbl602_std.a(bl602_hbn.o)
 .text.HBN_Set_Status_Flag
                0x0000000000000000        0xc /home/jins/bl_iot_sdk/customer_app/tt_app_temperature/build_out/bl602_std/libbl602_std.a(bl602_hbn.o)
 .text.HBN_Get_Wakeup_Addr
                0x0000000000000000        0xa /home/jins/bl_iot_sdk/customer_app/tt_app_temperature/build_out/bl602_std/libbl602_std.a(bl602_hbn.o)
 .text.HBN_Set_Wakeup_Addr
                0x0000000000000000        0xc /home/jins/bl_iot_sdk/customer_app/tt_app_temperature/build_out/bl602_std/libbl602_std.a(bl602_hbn.o)
 .text.HBN_Clear_RTC_Counter
                0x0000000000000000        0xe /home/jins/bl_iot_sdk/customer_app/tt_app_temperature/build_out/bl602_std/libbl602_std.a(bl602_hbn.o)
 .text.HBN_Enable_RTC_Counter
                0x0000000000000000       0x10 /home/jins/bl_iot_sdk/customer_app/tt_app_temperature/build_out/bl602_std/libbl602_std.a(bl602_hbn.o)
 .text.HBN_Set_RTC_Timer
                0x0000000000000000       0x24 /home/jins/bl_iot_sdk/customer_app/tt_app_temperature/build_out/bl602_std/libbl602_std.a(bl602_hbn.o)
 .text.HBN_Get_RTC_Timer_Val
                0x0000000000000000       0x28 /home/jins/bl_iot_sdk/customer_app/tt_app_temperature/build_out/bl602_std/libbl602_std.a(bl602_hbn.o)
 .text.HBN_Clear_RTC_INT
                0x0000000000000000        0xe /home/jins/bl_iot_sdk/customer_app/tt_app_temperature/build_out/bl602_std/libbl602_std.a(bl602_hbn.o)
 .text.HBN_GPIO_INT_Enable
                0x0000000000000000       0x10 /home/jins/bl_iot_sdk/customer_app/tt_app_temperature/build_out/bl602_std/libbl602_std.a(bl602_hbn.o)
 .text.HBN_GPIO_INT_Disable
                0x0000000000000000        0xe /home/jins/bl_iot_sdk/customer_app/tt_app_temperature/build_out/bl602_std/libbl602_std.a(bl602_hbn.o)
 .text.HBN_Get_INT_State
                0x0000000000000000       0x14 /home/jins/bl_iot_sdk/customer_app/tt_app_temperature/build_out/bl602_std/libbl602_std.a(bl602_hbn.o)
 .text.HBN_Get_Pin_Wakeup_Mode
                0x0000000000000000        0xa /home/jins/bl_iot_sdk/customer_app/tt_app_temperature/build_out/bl602_std/libbl602_std.a(bl602_hbn.o)
 .text.HBN_Clear_IRQ
                0x0000000000000000       0x1e /home/jins/bl_iot_sdk/customer_app/tt_app_temperature/build_out/bl602_std/libbl602_std.a(bl602_hbn.o)
 .text.HBN_Aon_Pad_IeSmt_Cfg
                0x0000000000000000       0x14 /home/jins/bl_iot_sdk/customer_app/tt_app_temperature/build_out/bl602_std/libbl602_std.a(bl602_hbn.o)
 .text.HBN_Enable_AComp0_IRQ
                0x0000000000000000       0x12 /home/jins/bl_iot_sdk/customer_app/tt_app_temperature/build_out/bl602_std/libbl602_std.a(bl602_hbn.o)
 .text.HBN_Disable_AComp0_IRQ
                0x0000000000000000       0x14 /home/jins/bl_iot_sdk/customer_app/tt_app_temperature/build_out/bl602_std/libbl602_std.a(bl602_hbn.o)
 .text.HBN_Enable_AComp1_IRQ
                0x0000000000000000       0x12 /home/jins/bl_iot_sdk/customer_app/tt_app_temperature/build_out/bl602_std/libbl602_std.a(bl602_hbn.o)
 .text.HBN_Disable_AComp1_IRQ
                0x0000000000000000       0x14 /home/jins/bl_iot_sdk/customer_app/tt_app_temperature/build_out/bl602_std/libbl602_std.a(bl602_hbn.o)
 .text.HBN_Enable_BOR_IRQ
                0x0000000000000000       0x12 /home/jins/bl_iot_sdk/customer_app/tt_app_temperature/build_out/bl602_std/libbl602_std.a(bl602_hbn.o)
 .text.HBN_Disable_BOR_IRQ
                0x0000000000000000       0x14 /home/jins/bl_iot_sdk/customer_app/tt_app_temperature/build_out/bl602_std/libbl602_std.a(bl602_hbn.o)
 .text.HBN_Out0_Callback_Install
                0x0000000000000000        0x4 /home/jins/bl_iot_sdk/customer_app/tt_app_temperature/build_out/bl602_std/libbl602_std.a(bl602_hbn.o)
 .text.HBN_Out1_Callback_Install
                0x0000000000000000        0x4 /home/jins/bl_iot_sdk/customer_app/tt_app_temperature/build_out/bl602_std/libbl602_std.a(bl602_hbn.o)
 .text.HBN_Set_BOR_Cfg
                0x0000000000000000       0x5e /home/jins/bl_iot_sdk/customer_app/tt_app_temperature/build_out/bl602_std/libbl602_std.a(bl602_hbn.o)
 .text          0x0000000000000000        0x0 /home/jins/bl_iot_sdk/customer_app/tt_app_temperature/build_out/hal_drv/libhal_drv.a(bl_uart.o)
 .data          0x0000000000000000        0x0 /home/jins/bl_iot_sdk/customer_app/tt_app_temperature/build_out/hal_drv/libhal_drv.a(bl_uart.o)
 .bss           0x0000000000000000        0x0 /home/jins/bl_iot_sdk/customer_app/tt_app_temperature/build_out/hal_drv/libhal_drv.a(bl_uart.o)
 .text.bl_uart_data_recv
                0x0000000000000000       0x34 /home/jins/bl_iot_sdk/customer_app/tt_app_temperature/build_out/hal_drv/libhal_drv.a(bl_uart.o)
 .text.bl_uart_int_rx_enable
                0x0000000000000000       0x46 /home/jins/bl_iot_sdk/customer_app/tt_app_temperature/build_out/hal_drv/libhal_drv.a(bl_uart.o)
 .text.bl_uart_int_rx_disable
                0x0000000000000000       0x3a /home/jins/bl_iot_sdk/customer_app/tt_app_temperature/build_out/hal_drv/libhal_drv.a(bl_uart.o)
 .text.bl_uart_int_tx_enable
                0x0000000000000000       0x18 /home/jins/bl_iot_sdk/customer_app/tt_app_temperature/build_out/hal_drv/libhal_drv.a(bl_uart.o)
 .text.bl_uart_int_tx_disable
                0x0000000000000000       0x18 /home/jins/bl_iot_sdk/customer_app/tt_app_temperature/build_out/hal_drv/libhal_drv.a(bl_uart.o)
 .text.bl_uart_flush
                0x0000000000000000       0x28 /home/jins/bl_iot_sdk/customer_app/tt_app_temperature/build_out/hal_drv/libhal_drv.a(bl_uart.o)
 .text.bl_uart_getdefconfig
                0x0000000000000000        0x8 /home/jins/bl_iot_sdk/customer_app/tt_app_temperature/build_out/hal_drv/libhal_drv.a(bl_uart.o)
 .text.bl_uart_setconfig
                0x0000000000000000       0x66 /home/jins/bl_iot_sdk/customer_app/tt_app_temperature/build_out/hal_drv/libhal_drv.a(bl_uart.o)
 .text.bl_uart_setbaud
                0x0000000000000000        0xa /home/jins/bl_iot_sdk/customer_app/tt_app_temperature/build_out/hal_drv/libhal_drv.a(bl_uart.o)
 .text.bl_uart_int_enable
                0x0000000000000000       0x76 /home/jins/bl_iot_sdk/customer_app/tt_app_temperature/build_out/hal_drv/libhal_drv.a(bl_uart.o)
 .text.bl_uart_int_disable
                0x0000000000000000       0x76 /home/jins/bl_iot_sdk/customer_app/tt_app_temperature/build_out/hal_drv/libhal_drv.a(bl_uart.o)
 .text.bl_uart_int_rx_notify_register
                0x0000000000000000       0x20 /home/jins/bl_iot_sdk/customer_app/tt_app_temperature/build_out/hal_drv/libhal_drv.a(bl_uart.o)
 .text.bl_uart_int_tx_notify_register
                0x0000000000000000       0x20 /home/jins/bl_iot_sdk/customer_app/tt_app_temperature/build_out/hal_drv/libhal_drv.a(bl_uart.o)
 .text.bl_uart_int_rx_notify_unregister
                0x0000000000000000       0x24 /home/jins/bl_iot_sdk/customer_app/tt_app_temperature/build_out/hal_drv/libhal_drv.a(bl_uart.o)
 .text.bl_uart_int_tx_notify_unregister
                0x0000000000000000       0x24 /home/jins/bl_iot_sdk/customer_app/tt_app_temperature/build_out/hal_drv/libhal_drv.a(bl_uart.o)
 .text          0x0000000000000000        0x0 /home/jins/bl_iot_sdk/customer_app/tt_app_temperature/build_out/hal_drv/libhal_drv.a(bl_sys.o)
 .data          0x0000000000000000        0x0 /home/jins/bl_iot_sdk/customer_app/tt_app_temperature/build_out/hal_drv/libhal_drv.a(bl_sys.o)
 .bss           0x0000000000000000        0x0 /home/jins/bl_iot_sdk/customer_app/tt_app_temperature/build_out/hal_drv/libhal_drv.a(bl_sys.o)
 .text.bl_sys_logall_enable
                0x0000000000000000        0xe /home/jins/bl_iot_sdk/customer_app/tt_app_temperature/build_out/hal_drv/libhal_drv.a(bl_sys.o)
 .text.bl_sys_logall_disable
                0x0000000000000000        0xc /home/jins/bl_iot_sdk/customer_app/tt_app_temperature/build_out/hal_drv/libhal_drv.a(bl_sys.o)
 .text.bl_sys_mfg_config
                0x0000000000000000       0x12 /home/jins/bl_iot_sdk/customer_app/tt_app_temperature/build_out/hal_drv/libhal_drv.a(bl_sys.o)
 .text.bl_sys_reset_por
                0x0000000000000000       0x12 /home/jins/bl_iot_sdk/customer_app/tt_app_temperature/build_out/hal_drv/libhal_drv.a(bl_sys.o)
 .text.bl_sys_reset_system
                0x0000000000000000       0x12 /home/jins/bl_iot_sdk/customer_app/tt_app_temperature/build_out/hal_drv/libhal_drv.a(bl_sys.o)
 .text.bl_sys_isxipaddr
                0x0000000000000000       0x18 /home/jins/bl_iot_sdk/customer_app/tt_app_temperature/build_out/hal_drv/libhal_drv.a(bl_sys.o)
 .text.bl_sys_em_config
                0x0000000000000000       0x2e /home/jins/bl_iot_sdk/customer_app/tt_app_temperature/build_out/hal_drv/libhal_drv.a(bl_sys.o)
 .text.bl_sys_early_init
                0x0000000000000000       0x22 /home/jins/bl_iot_sdk/customer_app/tt_app_temperature/build_out/hal_drv/libhal_drv.a(bl_sys.o)
 .text.bl_sys_init
                0x0000000000000000       0x14 /home/jins/bl_iot_sdk/customer_app/tt_app_temperature/build_out/hal_drv/libhal_drv.a(bl_sys.o)
 .text          0x0000000000000000        0x0 /home/jins/bl_iot_sdk/customer_app/tt_app_temperature/build_out/hal_drv/libhal_drv.a(bl_irq.o)
 .data          0x0000000000000000        0x0 /home/jins/bl_iot_sdk/customer_app/tt_app_temperature/build_out/hal_drv/libhal_drv.a(bl_irq.o)
 .bss           0x0000000000000000        0x0 /home/jins/bl_iot_sdk/customer_app/tt_app_temperature/build_out/hal_drv/libhal_drv.a(bl_irq.o)
 .text.bl_irq_enable
                0x0000000000000000       0x12 /home/jins/bl_iot_sdk/customer_app/tt_app_temperature/build_out/hal_drv/libhal_drv.a(bl_irq.o)
 .text.bl_irq_disable
                0x0000000000000000       0x10 /home/jins/bl_iot_sdk/customer_app/tt_app_temperature/build_out/hal_drv/libhal_drv.a(bl_irq.o)
 .text.bl_irq_pending_set
                0x0000000000000000        0xe /home/jins/bl_iot_sdk/customer_app/tt_app_temperature/build_out/hal_drv/libhal_drv.a(bl_irq.o)
 .text.bl_irq_pending_clear
                0x0000000000000000        0xc /home/jins/bl_iot_sdk/customer_app/tt_app_temperature/build_out/hal_drv/libhal_drv.a(bl_irq.o)
 .text.bl_irq_exception_trigger
                0x0000000000000000       0x56 /home/jins/bl_iot_sdk/customer_app/tt_app_temperature/build_out/hal_drv/libhal_drv.a(bl_irq.o)
 .text.bl_irq_default
                0x0000000000000000        0x2 /home/jins/bl_iot_sdk/customer_app/tt_app_temperature/build_out/hal_drv/libhal_drv.a(bl_irq.o)
 .text.bl_irq_register_with_ctx
                0x0000000000000000       0x30 /home/jins/bl_iot_sdk/customer_app/tt_app_temperature/build_out/hal_drv/libhal_drv.a(bl_irq.o)
 .text.bl_irq_ctx_get
                0x0000000000000000       0x20 /home/jins/bl_iot_sdk/customer_app/tt_app_temperature/build_out/hal_drv/libhal_drv.a(bl_irq.o)
 .text.bl_irq_register
                0x0000000000000000        0xa /home/jins/bl_iot_sdk/customer_app/tt_app_temperature/build_out/hal_drv/libhal_drv.a(bl_irq.o)
 .text.bl_irq_unregister
                0x0000000000000000       0x1c /home/jins/bl_iot_sdk/customer_app/tt_app_temperature/build_out/hal_drv/libhal_drv.a(bl_irq.o)
 .text.interrupt_entry
                0x0000000000000000       0x52 /home/jins/bl_iot_sdk/customer_app/tt_app_temperature/build_out/hal_drv/libhal_drv.a(bl_irq.o)
 .text.exception_entry
                0x0000000000000000      0x15c /home/jins/bl_iot_sdk/customer_app/tt_app_temperature/build_out/hal_drv/libhal_drv.a(bl_irq.o)
 .rodata.exception_entry
                0x0000000000000000       0x40 /home/jins/bl_iot_sdk/customer_app/tt_app_temperature/build_out/hal_drv/libhal_drv.a(bl_irq.o)
 .text.bl_irq_init
                0x0000000000000000       0x42 /home/jins/bl_iot_sdk/customer_app/tt_app_temperature/build_out/hal_drv/libhal_drv.a(bl_irq.o)
 .bss.handler_list
                0x0000000000000000      0x280 /home/jins/bl_iot_sdk/customer_app/tt_app_temperature/build_out/hal_drv/libhal_drv.a(bl_irq.o)
 .rodata.bl_irq_exception_trigger.str1.4
                0x0000000000000000       0x21 /home/jins/bl_iot_sdk/customer_app/tt_app_temperature/build_out/hal_drv/libhal_drv.a(bl_irq.o)
 .rodata.bl_irq_init.str1.4
                0x0000000000000000       0x34 /home/jins/bl_iot_sdk/customer_app/tt_app_temperature/build_out/hal_drv/libhal_drv.a(bl_irq.o)
 .rodata.exception_entry.str1.4
                0x0000000000000000      0x26c /home/jins/bl_iot_sdk/customer_app/tt_app_temperature/build_out/hal_drv/libhal_drv.a(bl_irq.o)
 .rodata.interrupt_entry.str1.4
                0x0000000000000000       0x40 /home/jins/bl_iot_sdk/customer_app/tt_app_temperature/build_out/hal_drv/libhal_drv.a(bl_irq.o)
 .debug_info    0x0000000000000000      0xef7 /home/jins/bl_iot_sdk/customer_app/tt_app_temperature/build_out/hal_drv/libhal_drv.a(bl_irq.o)
 .debug_abbrev  0x0000000000000000      0x40c /home/jins/bl_iot_sdk/customer_app/tt_app_temperature/build_out/hal_drv/libhal_drv.a(bl_irq.o)
 .debug_loc     0x0000000000000000      0x57a /home/jins/bl_iot_sdk/customer_app/tt_app_temperature/build_out/hal_drv/libhal_drv.a(bl_irq.o)
 .debug_aranges
                0x0000000000000000       0x80 /home/jins/bl_iot_sdk/customer_app/tt_app_temperature/build_out/hal_drv/libhal_drv.a(bl_irq.o)
 .debug_ranges  0x0000000000000000       0xa8 /home/jins/bl_iot_sdk/customer_app/tt_app_temperature/build_out/hal_drv/libhal_drv.a(bl_irq.o)
 .debug_line    0x0000000000000000      0x957 /home/jins/bl_iot_sdk/customer_app/tt_app_temperature/build_out/hal_drv/libhal_drv.a(bl_irq.o)
 .debug_str     0x0000000000000000      0x852 /home/jins/bl_iot_sdk/customer_app/tt_app_temperature/build_out/hal_drv/libhal_drv.a(bl_irq.o)
 .comment       0x0000000000000000       0x29 /home/jins/bl_iot_sdk/customer_app/tt_app_temperature/build_out/hal_drv/libhal_drv.a(bl_irq.o)
 .debug_frame   0x0000000000000000      0x12c /home/jins/bl_iot_sdk/customer_app/tt_app_temperature/build_out/hal_drv/libhal_drv.a(bl_irq.o)
 .riscv.attributes
                0x0000000000000000       0x2b /home/jins/bl_iot_sdk/customer_app/tt_app_temperature/build_out/hal_drv/libhal_drv.a(bl_irq.o)
 .text          0x0000000000000000        0x0 /home/jins/bl_iot_sdk/customer_app/tt_app_temperature/build_out/hal_drv/libhal_drv.a(bl_gpio.o)
 .data          0x0000000000000000        0x0 /home/jins/bl_iot_sdk/customer_app/tt_app_temperature/build_out/hal_drv/libhal_drv.a(bl_gpio.o)
 .bss           0x0000000000000000        0x0 /home/jins/bl_iot_sdk/customer_app/tt_app_temperature/build_out/hal_drv/libhal_drv.a(bl_gpio.o)
 .text.gpio_interrupt_entry
                0x0000000000000000       0x48 /home/jins/bl_iot_sdk/customer_app/tt_app_temperature/build_out/hal_drv/libhal_drv.a(bl_gpio.o)
 .text.bl_gpio_input_get
                0x0000000000000000       0x1c /home/jins/bl_iot_sdk/customer_app/tt_app_temperature/build_out/hal_drv/libhal_drv.a(bl_gpio.o)
 .text.bl_gpio_intmask
                0x0000000000000000        0xc /home/jins/bl_iot_sdk/customer_app/tt_app_temperature/build_out/hal_drv/libhal_drv.a(bl_gpio.o)
 .text.bl_set_gpio_intmod
                0x0000000000000000        0x8 /home/jins/bl_iot_sdk/customer_app/tt_app_temperature/build_out/hal_drv/libhal_drv.a(bl_gpio.o)
 .text.bl_gpio_int_clear
                0x0000000000000000       0x2e /home/jins/bl_iot_sdk/customer_app/tt_app_temperature/build_out/hal_drv/libhal_drv.a(bl_gpio.o)
 .text.bl_gpio_register
                0x0000000000000000       0x60 /home/jins/bl_iot_sdk/customer_app/tt_app_temperature/build_out/hal_drv/libhal_drv.a(bl_gpio.o)
 .text          0x0000000000000000        0x0 /home/jins/bl_iot_sdk/customer_app/tt_app_temperature/build_out/freertos_riscv_ram/libfreertos_riscv_ram.a(misaligned_ldst.o)
 .data          0x0000000000000000        0x0 /home/jins/bl_iot_sdk/customer_app/tt_app_temperature/build_out/freertos_riscv_ram/libfreertos_riscv_ram.a(misaligned_ldst.o)
 .bss           0x0000000000000000        0x0 /home/jins/bl_iot_sdk/customer_app/tt_app_temperature/build_out/freertos_riscv_ram/libfreertos_riscv_ram.a(misaligned_ldst.o)
 .text.truly_illegal_insn
                0x0000000000000000        0x4 /home/jins/bl_iot_sdk/customer_app/tt_app_temperature/build_out/freertos_riscv_ram/libfreertos_riscv_ram.a(misaligned_ldst.o)
 .text.misaligned_load_trap
                0x0000000000000000      0x152 /home/jins/bl_iot_sdk/customer_app/tt_app_temperature/build_out/freertos_riscv_ram/libfreertos_riscv_ram.a(misaligned_ldst.o)
 .text.misaligned_store_trap
                0x0000000000000000      0x14c /home/jins/bl_iot_sdk/customer_app/tt_app_temperature/build_out/freertos_riscv_ram/libfreertos_riscv_ram.a(misaligned_ldst.o)
 .debug_info    0x0000000000000000      0x752 /home/jins/bl_iot_sdk/customer_app/tt_app_temperature/build_out/freertos_riscv_ram/libfreertos_riscv_ram.a(misaligned_ldst.o)
 .debug_abbrev  0x0000000000000000      0x222 /home/jins/bl_iot_sdk/customer_app/tt_app_temperature/build_out/freertos_riscv_ram/libfreertos_riscv_ram.a(misaligned_ldst.o)
 .debug_loc     0x0000000000000000      0x566 /home/jins/bl_iot_sdk/customer_app/tt_app_temperature/build_out/freertos_riscv_ram/libfreertos_riscv_ram.a(misaligned_ldst.o)
 .debug_aranges
                0x0000000000000000       0x30 /home/jins/bl_iot_sdk/customer_app/tt_app_temperature/build_out/freertos_riscv_ram/libfreertos_riscv_ram.a(misaligned_ldst.o)
 .debug_ranges  0x0000000000000000      0x150 /home/jins/bl_iot_sdk/customer_app/tt_app_temperature/build_out/freertos_riscv_ram/libfreertos_riscv_ram.a(misaligned_ldst.o)
 .debug_line    0x0000000000000000      0xa2c /home/jins/bl_iot_sdk/customer_app/tt_app_temperature/build_out/freertos_riscv_ram/libfreertos_riscv_ram.a(misaligned_ldst.o)
 .debug_str     0x0000000000000000      0x301 /home/jins/bl_iot_sdk/customer_app/tt_app_temperature/build_out/freertos_riscv_ram/libfreertos_riscv_ram.a(misaligned_ldst.o)
 .comment       0x0000000000000000       0x29 /home/jins/bl_iot_sdk/customer_app/tt_app_temperature/build_out/freertos_riscv_ram/libfreertos_riscv_ram.a(misaligned_ldst.o)
 .debug_frame   0x0000000000000000       0x5c /home/jins/bl_iot_sdk/customer_app/tt_app_temperature/build_out/freertos_riscv_ram/libfreertos_riscv_ram.a(misaligned_ldst.o)
 .riscv.attributes
                0x0000000000000000       0x2b /home/jins/bl_iot_sdk/customer_app/tt_app_temperature/build_out/freertos_riscv_ram/libfreertos_riscv_ram.a(misaligned_ldst.o)
 .text          0x0000000000000000      0x200 /home/jins/bl_iot_sdk/customer_app/tt_app_temperature/build_out/freertos_riscv_ram/libfreertos_riscv_ram.a(fp_asm.o)
 .data          0x0000000000000000        0x0 /home/jins/bl_iot_sdk/customer_app/tt_app_temperature/build_out/freertos_riscv_ram/libfreertos_riscv_ram.a(fp_asm.o)
 .bss           0x0000000000000000        0x0 /home/jins/bl_iot_sdk/customer_app/tt_app_temperature/build_out/freertos_riscv_ram/libfreertos_riscv_ram.a(fp_asm.o)
 .debug_line    0x0000000000000000      0x1f8 /home/jins/bl_iot_sdk/customer_app/tt_app_temperature/build_out/freertos_riscv_ram/libfreertos_riscv_ram.a(fp_asm.o)
 .debug_info    0x0000000000000000       0x26 /home/jins/bl_iot_sdk/customer_app/tt_app_temperature/build_out/freertos_riscv_ram/libfreertos_riscv_ram.a(fp_asm.o)
 .debug_abbrev  0x0000000000000000       0x14 /home/jins/bl_iot_sdk/customer_app/tt_app_temperature/build_out/freertos_riscv_ram/libfreertos_riscv_ram.a(fp_asm.o)
 .debug_aranges
                0x0000000000000000       0x20 /home/jins/bl_iot_sdk/customer_app/tt_app_temperature/build_out/freertos_riscv_ram/libfreertos_riscv_ram.a(fp_asm.o)
 .debug_str     0x0000000000000000       0xad /home/jins/bl_iot_sdk/customer_app/tt_app_temperature/build_out/freertos_riscv_ram/libfreertos_riscv_ram.a(fp_asm.o)
 .riscv.attributes
                0x0000000000000000       0x29 /home/jins/bl_iot_sdk/customer_app/tt_app_temperature/build_out/freertos_riscv_ram/libfreertos_riscv_ram.a(fp_asm.o)
 .text          0x0000000000000000        0x0 /home/jins/bl_iot_sdk/customer_app/tt_app_temperature/build_out/freertos_riscv_ram/libfreertos_riscv_ram.a(panic_c.o)
 .data          0x0000000000000000        0x0 /home/jins/bl_iot_sdk/customer_app/tt_app_temperature/build_out/freertos_riscv_ram/libfreertos_riscv_ram.a(panic_c.o)
 .bss           0x0000000000000000        0x0 /home/jins/bl_iot_sdk/customer_app/tt_app_temperature/build_out/freertos_riscv_ram/libfreertos_riscv_ram.a(panic_c.o)
 .text.backtrace_riscv
                0x0000000000000000        0x4 /home/jins/bl_iot_sdk/customer_app/tt_app_temperature/build_out/freertos_riscv_ram/libfreertos_riscv_ram.a(panic_c.o)
 .debug_info    0x0000000000000000      0x97c /home/jins/bl_iot_sdk/customer_app/tt_app_temperature/build_out/freertos_riscv_ram/libfreertos_riscv_ram.a(panic_c.o)
 .debug_abbrev  0x0000000000000000      0x1e7 /home/jins/bl_iot_sdk/customer_app/tt_app_temperature/build_out/freertos_riscv_ram/libfreertos_riscv_ram.a(panic_c.o)
 .debug_loc     0x0000000000000000       0x21 /home/jins/bl_iot_sdk/customer_app/tt_app_temperature/build_out/freertos_riscv_ram/libfreertos_riscv_ram.a(panic_c.o)
 .debug_aranges
                0x0000000000000000       0x20 /home/jins/bl_iot_sdk/customer_app/tt_app_temperature/build_out/freertos_riscv_ram/libfreertos_riscv_ram.a(panic_c.o)
 .debug_ranges  0x0000000000000000       0x10 /home/jins/bl_iot_sdk/customer_app/tt_app_temperature/build_out/freertos_riscv_ram/libfreertos_riscv_ram.a(panic_c.o)
 .debug_line    0x0000000000000000      0x1ce /home/jins/bl_iot_sdk/customer_app/tt_app_temperature/build_out/freertos_riscv_ram/libfreertos_riscv_ram.a(panic_c.o)
 .debug_str     0x0000000000000000      0x5f8 /home/jins/bl_iot_sdk/customer_app/tt_app_temperature/build_out/freertos_riscv_ram/libfreertos_riscv_ram.a(panic_c.o)
 .comment       0x0000000000000000       0x29 /home/jins/bl_iot_sdk/customer_app/tt_app_temperature/build_out/freertos_riscv_ram/libfreertos_riscv_ram.a(panic_c.o)
 .debug_frame   0x0000000000000000       0x20 /home/jins/bl_iot_sdk/customer_app/tt_app_temperature/build_out/freertos_riscv_ram/libfreertos_riscv_ram.a(panic_c.o)
 .riscv.attributes
                0x0000000000000000       0x2b /home/jins/bl_iot_sdk/customer_app/tt_app_temperature/build_out/freertos_riscv_ram/libfreertos_riscv_ram.a(panic_c.o)
 .text          0x0000000000000000      0x700 /home/jins/bl_iot_sdk/customer_app/tt_app_temperature/build_out/freertos_riscv_ram/libfreertos_riscv_ram.a(portASM.o)
 .data          0x0000000000000000        0x0 /home/jins/bl_iot_sdk/customer_app/tt_app_temperature/build_out/freertos_riscv_ram/libfreertos_riscv_ram.a(portASM.o)
 .bss           0x0000000000000000        0x0 /home/jins/bl_iot_sdk/customer_app/tt_app_temperature/build_out/freertos_riscv_ram/libfreertos_riscv_ram.a(portASM.o)
 .debug_line    0x0000000000000000      0x4d4 /home/jins/bl_iot_sdk/customer_app/tt_app_temperature/build_out/freertos_riscv_ram/libfreertos_riscv_ram.a(portASM.o)
 .debug_info    0x0000000000000000       0x26 /home/jins/bl_iot_sdk/customer_app/tt_app_temperature/build_out/freertos_riscv_ram/libfreertos_riscv_ram.a(portASM.o)
 .debug_abbrev  0x0000000000000000       0x14 /home/jins/bl_iot_sdk/customer_app/tt_app_temperature/build_out/freertos_riscv_ram/libfreertos_riscv_ram.a(portASM.o)
 .debug_aranges
                0x0000000000000000       0x20 /home/jins/bl_iot_sdk/customer_app/tt_app_temperature/build_out/freertos_riscv_ram/libfreertos_riscv_ram.a(portASM.o)
 .debug_str     0x0000000000000000       0xb7 /home/jins/bl_iot_sdk/customer_app/tt_app_temperature/build_out/freertos_riscv_ram/libfreertos_riscv_ram.a(portASM.o)
 .riscv.attributes
                0x0000000000000000       0x29 /home/jins/bl_iot_sdk/customer_app/tt_app_temperature/build_out/freertos_riscv_ram/libfreertos_riscv_ram.a(portASM.o)
 .text          0x0000000000000000        0x0 /home/jins/bl_iot_sdk/customer_app/tt_app_temperature/build_out/freertos_riscv_ram/libfreertos_riscv_ram.a(tasks.o)
 .data          0x0000000000000000        0x0 /home/jins/bl_iot_sdk/customer_app/tt_app_temperature/build_out/freertos_riscv_ram/libfreertos_riscv_ram.a(tasks.o)
 .bss           0x0000000000000000        0x0 /home/jins/bl_iot_sdk/customer_app/tt_app_temperature/build_out/freertos_riscv_ram/libfreertos_riscv_ram.a(tasks.o)
 .text.prvResetNextTaskUnblockTime.part.0
                0x0000000000000000       0x18 /home/jins/bl_iot_sdk/customer_app/tt_app_temperature/build_out/freertos_riscv_ram/libfreertos_riscv_ram.a(tasks.o)
 .text.prvInitialiseNewTask.isra.2
                0x0000000000000000       0xde /home/jins/bl_iot_sdk/customer_app/tt_app_temperature/build_out/freertos_riscv_ram/libfreertos_riscv_ram.a(tasks.o)
 .text.prvDeleteTCB
                0x0000000000000000       0x46 /home/jins/bl_iot_sdk/customer_app/tt_app_temperature/build_out/freertos_riscv_ram/libfreertos_riscv_ram.a(tasks.o)
 .text.prvAddCurrentTaskToDelayedList
                0x0000000000000000       0xd2 /home/jins/bl_iot_sdk/customer_app/tt_app_temperature/build_out/freertos_riscv_ram/libfreertos_riscv_ram.a(tasks.o)
 .text.vTaskEnterCritical.part.7
                0x0000000000000000       0x14 /home/jins/bl_iot_sdk/customer_app/tt_app_temperature/build_out/freertos_riscv_ram/libfreertos_riscv_ram.a(tasks.o)
 .text.vTaskExitCritical.part.8
                0x0000000000000000       0x1c /home/jins/bl_iot_sdk/customer_app/tt_app_temperature/build_out/freertos_riscv_ram/libfreertos_riscv_ram.a(tasks.o)
 .text.prvAddNewTaskToReadyList
                0x0000000000000000      0x184 /home/jins/bl_iot_sdk/customer_app/tt_app_temperature/build_out/freertos_riscv_ram/libfreertos_riscv_ram.a(tasks.o)
 .text.prvIdleTask
                0x0000000000000000       0xb6 /home/jins/bl_iot_sdk/customer_app/tt_app_temperature/build_out/freertos_riscv_ram/libfreertos_riscv_ram.a(tasks.o)
 .text.xTaskCreateStatic
                0x0000000000000000       0xb8 /home/jins/bl_iot_sdk/customer_app/tt_app_temperature/build_out/freertos_riscv_ram/libfreertos_riscv_ram.a(tasks.o)
 .text.xTaskCreate
                0x0000000000000000       0x90 /home/jins/bl_iot_sdk/customer_app/tt_app_temperature/build_out/freertos_riscv_ram/libfreertos_riscv_ram.a(tasks.o)
 .text.vTaskDelete
                0x0000000000000000      0x152 /home/jins/bl_iot_sdk/customer_app/tt_app_temperature/build_out/freertos_riscv_ram/libfreertos_riscv_ram.a(tasks.o)
 .text.eTaskGetState
                0x0000000000000000       0xda /home/jins/bl_iot_sdk/customer_app/tt_app_temperature/build_out/freertos_riscv_ram/libfreertos_riscv_ram.a(tasks.o)
 .text.uxTaskPriorityGet
                0x0000000000000000       0x56 /home/jins/bl_iot_sdk/customer_app/tt_app_temperature/build_out/freertos_riscv_ram/libfreertos_riscv_ram.a(tasks.o)
 .text.uxTaskPriorityGetFromISR
                0x0000000000000000       0x12 /home/jins/bl_iot_sdk/customer_app/tt_app_temperature/build_out/freertos_riscv_ram/libfreertos_riscv_ram.a(tasks.o)
 .text.vTaskPrioritySet
                0x0000000000000000      0x144 /home/jins/bl_iot_sdk/customer_app/tt_app_temperature/build_out/freertos_riscv_ram/libfreertos_riscv_ram.a(tasks.o)
 .text.vTaskResume
                0x0000000000000000       0xe4 /home/jins/bl_iot_sdk/customer_app/tt_app_temperature/build_out/freertos_riscv_ram/libfreertos_riscv_ram.a(tasks.o)
 .text.xTaskResumeFromISR
                0x0000000000000000       0xd8 /home/jins/bl_iot_sdk/customer_app/tt_app_temperature/build_out/freertos_riscv_ram/libfreertos_riscv_ram.a(tasks.o)
 .text.vTaskStartScheduler
                0x0000000000000000       0x88 /home/jins/bl_iot_sdk/customer_app/tt_app_temperature/build_out/freertos_riscv_ram/libfreertos_riscv_ram.a(tasks.o)
 .text.vTaskEndScheduler
                0x0000000000000000       0x14 /home/jins/bl_iot_sdk/customer_app/tt_app_temperature/build_out/freertos_riscv_ram/libfreertos_riscv_ram.a(tasks.o)
 .text.vTaskSuspendAll
                0x0000000000000000       0x10 /home/jins/bl_iot_sdk/customer_app/tt_app_temperature/build_out/freertos_riscv_ram/libfreertos_riscv_ram.a(tasks.o)
 .text.xTaskGetTickCount
                0x0000000000000000        0xa /home/jins/bl_iot_sdk/customer_app/tt_app_temperature/build_out/freertos_riscv_ram/libfreertos_riscv_ram.a(tasks.o)
 .text.xTaskGetTickCount2
                0x0000000000000000       0x18 /home/jins/bl_iot_sdk/customer_app/tt_app_temperature/build_out/freertos_riscv_ram/libfreertos_riscv_ram.a(tasks.o)
 .text.xTaskGetTickCountFromISR
                0x0000000000000000        0xa /home/jins/bl_iot_sdk/customer_app/tt_app_temperature/build_out/freertos_riscv_ram/libfreertos_riscv_ram.a(tasks.o)
 .text.uxTaskGetNumberOfTasks
                0x0000000000000000        0xa /home/jins/bl_iot_sdk/customer_app/tt_app_temperature/build_out/freertos_riscv_ram/libfreertos_riscv_ram.a(tasks.o)
 .text.pcTaskGetName
                0x0000000000000000       0x2c /home/jins/bl_iot_sdk/customer_app/tt_app_temperature/build_out/freertos_riscv_ram/libfreertos_riscv_ram.a(tasks.o)
 .text.vTaskStepTickSafe
                0x0000000000000000      0x102 /home/jins/bl_iot_sdk/customer_app/tt_app_temperature/build_out/freertos_riscv_ram/libfreertos_riscv_ram.a(tasks.o)
 .text.xTaskIncrementTick
                0x0000000000000000      0x1b8 /home/jins/bl_iot_sdk/customer_app/tt_app_temperature/build_out/freertos_riscv_ram/libfreertos_riscv_ram.a(tasks.o)
 .text.xTaskResumeAll
                0x0000000000000000      0x174 /home/jins/bl_iot_sdk/customer_app/tt_app_temperature/build_out/freertos_riscv_ram/libfreertos_riscv_ram.a(tasks.o)
 .text.vTaskDelayUntil
                0x0000000000000000       0x8e /home/jins/bl_iot_sdk/customer_app/tt_app_temperature/build_out/freertos_riscv_ram/libfreertos_riscv_ram.a(tasks.o)
 .text.vTaskDelay
                0x0000000000000000       0x4e /home/jins/bl_iot_sdk/customer_app/tt_app_temperature/build_out/freertos_riscv_ram/libfreertos_riscv_ram.a(tasks.o)
 .text.vTaskSwitchContext
                0x0000000000000000       0xd6 /home/jins/bl_iot_sdk/customer_app/tt_app_temperature/build_out/freertos_riscv_ram/libfreertos_riscv_ram.a(tasks.o)
 .text.vTaskSuspend
                0x0000000000000000      0x190 /home/jins/bl_iot_sdk/customer_app/tt_app_temperature/build_out/freertos_riscv_ram/libfreertos_riscv_ram.a(tasks.o)
 .text.vTaskPlaceOnEventList
                0x0000000000000000       0x3c /home/jins/bl_iot_sdk/customer_app/tt_app_temperature/build_out/freertos_riscv_ram/libfreertos_riscv_ram.a(tasks.o)
 .text.vTaskPlaceOnUnorderedEventList
                0x0000000000000000       0x66 /home/jins/bl_iot_sdk/customer_app/tt_app_temperature/build_out/freertos_riscv_ram/libfreertos_riscv_ram.a(tasks.o)
 .text.vTaskPlaceOnEventListRestricted
                0x0000000000000000       0x46 /home/jins/bl_iot_sdk/customer_app/tt_app_temperature/build_out/freertos_riscv_ram/libfreertos_riscv_ram.a(tasks.o)
 .text.xTaskRemoveFromEventList
                0x0000000000000000       0xac /home/jins/bl_iot_sdk/customer_app/tt_app_temperature/build_out/freertos_riscv_ram/libfreertos_riscv_ram.a(tasks.o)
 .text.vTaskRemoveFromUnorderedEventList
                0x0000000000000000       0xb6 /home/jins/bl_iot_sdk/customer_app/tt_app_temperature/build_out/freertos_riscv_ram/libfreertos_riscv_ram.a(tasks.o)
 .text.vTaskSetTimeOutState
                0x0000000000000000       0x6c /home/jins/bl_iot_sdk/customer_app/tt_app_temperature/build_out/freertos_riscv_ram/libfreertos_riscv_ram.a(tasks.o)
 .text.vTaskInternalSetTimeOutState
                0x0000000000000000       0x16 /home/jins/bl_iot_sdk/customer_app/tt_app_temperature/build_out/freertos_riscv_ram/libfreertos_riscv_ram.a(tasks.o)
 .text.xTaskCheckForTimeOut
                0x0000000000000000       0xc2 /home/jins/bl_iot_sdk/customer_app/tt_app_temperature/build_out/freertos_riscv_ram/libfreertos_riscv_ram.a(tasks.o)
 .text.vTaskMissedYield
                0x0000000000000000        0xc /home/jins/bl_iot_sdk/customer_app/tt_app_temperature/build_out/freertos_riscv_ram/libfreertos_riscv_ram.a(tasks.o)
 .text.uxTaskGetTaskNumber
                0x0000000000000000        0xa /home/jins/bl_iot_sdk/customer_app/tt_app_temperature/build_out/freertos_riscv_ram/libfreertos_riscv_ram.a(tasks.o)
 .text.vTaskSetTaskNumber
                0x0000000000000000        0x6 /home/jins/bl_iot_sdk/customer_app/tt_app_temperature/build_out/freertos_riscv_ram/libfreertos_riscv_ram.a(tasks.o)
 .text.vTaskGetInfo
                0x0000000000000000       0xde /home/jins/bl_iot_sdk/customer_app/tt_app_temperature/build_out/freertos_riscv_ram/libfreertos_riscv_ram.a(tasks.o)
 .text.prvListTasksWithinSingleList.part.11
                0x0000000000000000       0x92 /home/jins/bl_iot_sdk/customer_app/tt_app_temperature/build_out/freertos_riscv_ram/libfreertos_riscv_ram.a(tasks.o)
 .text.uxTaskGetSystemState
                0x0000000000000000      0x12c /home/jins/bl_iot_sdk/customer_app/tt_app_temperature/build_out/freertos_riscv_ram/libfreertos_riscv_ram.a(tasks.o)
 .text.uxTaskGetStackHighWaterMark
                0x0000000000000000       0x46 /home/jins/bl_iot_sdk/customer_app/tt_app_temperature/build_out/freertos_riscv_ram/libfreertos_riscv_ram.a(tasks.o)
 .text.xTaskGetCurrentTaskHandle
                0x0000000000000000        0xa /home/jins/bl_iot_sdk/customer_app/tt_app_temperature/build_out/freertos_riscv_ram/libfreertos_riscv_ram.a(tasks.o)
 .text.xTaskGetSchedulerState
                0x0000000000000000       0x1c /home/jins/bl_iot_sdk/customer_app/tt_app_temperature/build_out/freertos_riscv_ram/libfreertos_riscv_ram.a(tasks.o)
 .text.xTaskPriorityInherit
                0x0000000000000000       0xea /home/jins/bl_iot_sdk/customer_app/tt_app_temperature/build_out/freertos_riscv_ram/libfreertos_riscv_ram.a(tasks.o)
 .text.xTaskPriorityDisinherit
                0x0000000000000000       0xe8 /home/jins/bl_iot_sdk/customer_app/tt_app_temperature/build_out/freertos_riscv_ram/libfreertos_riscv_ram.a(tasks.o)
 .text.vTaskPriorityDisinheritAfterTimeout
                0x0000000000000000      0x116 /home/jins/bl_iot_sdk/customer_app/tt_app_temperature/build_out/freertos_riscv_ram/libfreertos_riscv_ram.a(tasks.o)
 .text.vTaskEnterCritical
                0x0000000000000000       0x18 /home/jins/bl_iot_sdk/customer_app/tt_app_temperature/build_out/freertos_riscv_ram/libfreertos_riscv_ram.a(tasks.o)
 .text.vTaskExitCritical
                0x0000000000000000       0x20 /home/jins/bl_iot_sdk/customer_app/tt_app_temperature/build_out/freertos_riscv_ram/libfreertos_riscv_ram.a(tasks.o)
 .text.vTaskList
                0x0000000000000000      0x11a /home/jins/bl_iot_sdk/customer_app/tt_app_temperature/build_out/freertos_riscv_ram/libfreertos_riscv_ram.a(tasks.o)
 .text.uxTaskResetEventItemValue
                0x0000000000000000       0x1c /home/jins/bl_iot_sdk/customer_app/tt_app_temperature/build_out/freertos_riscv_ram/libfreertos_riscv_ram.a(tasks.o)
 .text.pvTaskIncrementMutexHeldCount
                0x0000000000000000       0x18 /home/jins/bl_iot_sdk/customer_app/tt_app_temperature/build_out/freertos_riscv_ram/libfreertos_riscv_ram.a(tasks.o)
 .text.ulTaskNotifyTake
                0x0000000000000000       0xba /home/jins/bl_iot_sdk/customer_app/tt_app_temperature/build_out/freertos_riscv_ram/libfreertos_riscv_ram.a(tasks.o)
 .text.xTaskNotifyWait
                0x0000000000000000       0xf4 /home/jins/bl_iot_sdk/customer_app/tt_app_temperature/build_out/freertos_riscv_ram/libfreertos_riscv_ram.a(tasks.o)
 .text.xTaskGenericNotify
                0x0000000000000000      0x14a /home/jins/bl_iot_sdk/customer_app/tt_app_temperature/build_out/freertos_riscv_ram/libfreertos_riscv_ram.a(tasks.o)
 .rodata.xTaskGenericNotify
                0x0000000000000000       0x14 /home/jins/bl_iot_sdk/customer_app/tt_app_temperature/build_out/freertos_riscv_ram/libfreertos_riscv_ram.a(tasks.o)
 .text.xTaskGenericNotifyFromISR
                0x0000000000000000      0x134 /home/jins/bl_iot_sdk/customer_app/tt_app_temperature/build_out/freertos_riscv_ram/libfreertos_riscv_ram.a(tasks.o)
 .rodata.xTaskGenericNotifyFromISR
                0x0000000000000000       0x14 /home/jins/bl_iot_sdk/customer_app/tt_app_temperature/build_out/freertos_riscv_ram/libfreertos_riscv_ram.a(tasks.o)
 .text.vTaskNotifyGiveFromISR
                0x0000000000000000       0xd4 /home/jins/bl_iot_sdk/customer_app/tt_app_temperature/build_out/freertos_riscv_ram/libfreertos_riscv_ram.a(tasks.o)
 .text.xTaskNotifyStateClear
                0x0000000000000000       0x66 /home/jins/bl_iot_sdk/customer_app/tt_app_temperature/build_out/freertos_riscv_ram/libfreertos_riscv_ram.a(tasks.o)
 .bss.pxReadyTasksLists
                0x0000000000000000      0x280 /home/jins/bl_iot_sdk/customer_app/tt_app_temperature/build_out/freertos_riscv_ram/libfreertos_riscv_ram.a(tasks.o)
 .bss.xDelayedTaskList1
                0x0000000000000000       0x14 /home/jins/bl_iot_sdk/customer_app/tt_app_temperature/build_out/freertos_riscv_ram/libfreertos_riscv_ram.a(tasks.o)
 .bss.xDelayedTaskList2
                0x0000000000000000       0x14 /home/jins/bl_iot_sdk/customer_app/tt_app_temperature/build_out/freertos_riscv_ram/libfreertos_riscv_ram.a(tasks.o)
 .bss.xPendingReadyList
                0x0000000000000000       0x14 /home/jins/bl_iot_sdk/customer_app/tt_app_temperature/build_out/freertos_riscv_ram/libfreertos_riscv_ram.a(tasks.o)
 .bss.xSuspendedTaskList
                0x0000000000000000       0x14 /home/jins/bl_iot_sdk/customer_app/tt_app_temperature/build_out/freertos_riscv_ram/libfreertos_riscv_ram.a(tasks.o)
 .bss.xTasksWaitingTermination
                0x0000000000000000       0x14 /home/jins/bl_iot_sdk/customer_app/tt_app_temperature/build_out/freertos_riscv_ram/libfreertos_riscv_ram.a(tasks.o)
 .rodata.vTaskList.str1.4
                0x0000000000000000       0x12 /home/jins/bl_iot_sdk/customer_app/tt_app_temperature/build_out/freertos_riscv_ram/libfreertos_riscv_ram.a(tasks.o)
 .rodata.vTaskStartScheduler.str1.4
                0x0000000000000000        0x5 /home/jins/bl_iot_sdk/customer_app/tt_app_temperature/build_out/freertos_riscv_ram/libfreertos_riscv_ram.a(tasks.o)
 .sbss.pxCurrentTCB
                0x0000000000000000        0x4 /home/jins/bl_iot_sdk/customer_app/tt_app_temperature/build_out/freertos_riscv_ram/libfreertos_riscv_ram.a(tasks.o)
 .sbss.pxDelayedTaskList
                0x0000000000000000        0x4 /home/jins/bl_iot_sdk/customer_app/tt_app_temperature/build_out/freertos_riscv_ram/libfreertos_riscv_ram.a(tasks.o)
 .sbss.pxOverflowDelayedTaskList
                0x0000000000000000        0x4 /home/jins/bl_iot_sdk/customer_app/tt_app_temperature/build_out/freertos_riscv_ram/libfreertos_riscv_ram.a(tasks.o)
 .sbss.uxCurrentNumberOfTasks
                0x0000000000000000        0x4 /home/jins/bl_iot_sdk/customer_app/tt_app_temperature/build_out/freertos_riscv_ram/libfreertos_riscv_ram.a(tasks.o)
 .sbss.uxDeletedTasksWaitingCleanUp
                0x0000000000000000        0x4 /home/jins/bl_iot_sdk/customer_app/tt_app_temperature/build_out/freertos_riscv_ram/libfreertos_riscv_ram.a(tasks.o)
 .sbss.uxPendedTicks
                0x0000000000000000        0x4 /home/jins/bl_iot_sdk/customer_app/tt_app_temperature/build_out/freertos_riscv_ram/libfreertos_riscv_ram.a(tasks.o)
 .sbss.uxSchedulerSuspended
                0x0000000000000000        0x4 /home/jins/bl_iot_sdk/customer_app/tt_app_temperature/build_out/freertos_riscv_ram/libfreertos_riscv_ram.a(tasks.o)
 .sbss.uxTaskNumber
                0x0000000000000000        0x4 /home/jins/bl_iot_sdk/customer_app/tt_app_temperature/build_out/freertos_riscv_ram/libfreertos_riscv_ram.a(tasks.o)
 .sbss.uxTopReadyPriority
                0x0000000000000000        0x4 /home/jins/bl_iot_sdk/customer_app/tt_app_temperature/build_out/freertos_riscv_ram/libfreertos_riscv_ram.a(tasks.o)
 .sbss.xNextTaskUnblockTime
                0x0000000000000000        0x4 /home/jins/bl_iot_sdk/customer_app/tt_app_temperature/build_out/freertos_riscv_ram/libfreertos_riscv_ram.a(tasks.o)
 .sbss.xNumOfOverflows
                0x0000000000000000        0x4 /home/jins/bl_iot_sdk/customer_app/tt_app_temperature/build_out/freertos_riscv_ram/libfreertos_riscv_ram.a(tasks.o)
 .sbss.xSchedulerRunning
                0x0000000000000000        0x4 /home/jins/bl_iot_sdk/customer_app/tt_app_temperature/build_out/freertos_riscv_ram/libfreertos_riscv_ram.a(tasks.o)
 .sbss.xTickCount
                0x0000000000000000        0x4 /home/jins/bl_iot_sdk/customer_app/tt_app_temperature/build_out/freertos_riscv_ram/libfreertos_riscv_ram.a(tasks.o)
 .sbss.xYieldPending
                0x0000000000000000        0x4 /home/jins/bl_iot_sdk/customer_app/tt_app_temperature/build_out/freertos_riscv_ram/libfreertos_riscv_ram.a(tasks.o)
 .sdata2.CSWTCH.175
                0x0000000000000000        0x5 /home/jins/bl_iot_sdk/customer_app/tt_app_temperature/build_out/freertos_riscv_ram/libfreertos_riscv_ram.a(tasks.o)
 .debug_info    0x0000000000000000     0x3c7d /home/jins/bl_iot_sdk/customer_app/tt_app_temperature/build_out/freertos_riscv_ram/libfreertos_riscv_ram.a(tasks.o)
 .debug_abbrev  0x0000000000000000      0x592 /home/jins/bl_iot_sdk/customer_app/tt_app_temperature/build_out/freertos_riscv_ram/libfreertos_riscv_ram.a(tasks.o)
 .debug_loc     0x0000000000000000     0x2a0f /home/jins/bl_iot_sdk/customer_app/tt_app_temperature/build_out/freertos_riscv_ram/libfreertos_riscv_ram.a(tasks.o)
 .debug_aranges
                0x0000000000000000      0x208 /home/jins/bl_iot_sdk/customer_app/tt_app_temperature/build_out/freertos_riscv_ram/libfreertos_riscv_ram.a(tasks.o)
 .debug_ranges  0x0000000000000000      0x780 /home/jins/bl_iot_sdk/customer_app/tt_app_temperature/build_out/freertos_riscv_ram/libfreertos_riscv_ram.a(tasks.o)
 .debug_line    0x0000000000000000     0x5eab /home/jins/bl_iot_sdk/customer_app/tt_app_temperature/build_out/freertos_riscv_ram/libfreertos_riscv_ram.a(tasks.o)
 .debug_str     0x0000000000000000     0x1754 /home/jins/bl_iot_sdk/customer_app/tt_app_temperature/build_out/freertos_riscv_ram/libfreertos_riscv_ram.a(tasks.o)
 .comment       0x0000000000000000       0x29 /home/jins/bl_iot_sdk/customer_app/tt_app_temperature/build_out/freertos_riscv_ram/libfreertos_riscv_ram.a(tasks.o)
 .debug_frame   0x0000000000000000      0xa80 /home/jins/bl_iot_sdk/customer_app/tt_app_temperature/build_out/freertos_riscv_ram/libfreertos_riscv_ram.a(tasks.o)
 .riscv.attributes
                0x0000000000000000       0x2b /home/jins/bl_iot_sdk/customer_app/tt_app_temperature/build_out/freertos_riscv_ram/libfreertos_riscv_ram.a(tasks.o)
 .text          0x0000000000000000        0x0 /home/jins/bl_iot_sdk/customer_app/tt_app_temperature/build_out/freertos_riscv_ram/libfreertos_riscv_ram.a(timers.o)
 .data          0x0000000000000000        0x0 /home/jins/bl_iot_sdk/customer_app/tt_app_temperature/build_out/freertos_riscv_ram/libfreertos_riscv_ram.a(timers.o)
 .bss           0x0000000000000000        0x0 /home/jins/bl_iot_sdk/customer_app/tt_app_temperature/build_out/freertos_riscv_ram/libfreertos_riscv_ram.a(timers.o)
 .text.prvCheckForValidListAndQueue
                0x0000000000000000       0x9c /home/jins/bl_iot_sdk/customer_app/tt_app_temperature/build_out/freertos_riscv_ram/libfreertos_riscv_ram.a(timers.o)
 .text.prvInsertTimerInActiveList
                0x0000000000000000       0x60 /home/jins/bl_iot_sdk/customer_app/tt_app_temperature/build_out/freertos_riscv_ram/libfreertos_riscv_ram.a(timers.o)
 .text.xTimerCreateTimerTask
                0x0000000000000000       0x6c /home/jins/bl_iot_sdk/customer_app/tt_app_temperature/build_out/freertos_riscv_ram/libfreertos_riscv_ram.a(timers.o)
 .text.xTimerCreate
                0x0000000000000000       0x80 /home/jins/bl_iot_sdk/customer_app/tt_app_temperature/build_out/freertos_riscv_ram/libfreertos_riscv_ram.a(timers.o)
 .text.xTimerCreateStatic
                0x0000000000000000       0x96 /home/jins/bl_iot_sdk/customer_app/tt_app_temperature/build_out/freertos_riscv_ram/libfreertos_riscv_ram.a(timers.o)
 .text.xTimerGenericCommand
                0x0000000000000000       0xa8 /home/jins/bl_iot_sdk/customer_app/tt_app_temperature/build_out/freertos_riscv_ram/libfreertos_riscv_ram.a(timers.o)
 .text.prvSwitchTimerLists
                0x0000000000000000       0x9a /home/jins/bl_iot_sdk/customer_app/tt_app_temperature/build_out/freertos_riscv_ram/libfreertos_riscv_ram.a(timers.o)
 .text.prvTimerTask
                0x0000000000000000      0x24e /home/jins/bl_iot_sdk/customer_app/tt_app_temperature/build_out/freertos_riscv_ram/libfreertos_riscv_ram.a(timers.o)
 .rodata.prvTimerTask
                0x0000000000000000       0x28 /home/jins/bl_iot_sdk/customer_app/tt_app_temperature/build_out/freertos_riscv_ram/libfreertos_riscv_ram.a(timers.o)
 .text.xTimerGetTimerDaemonTaskHandle
                0x0000000000000000       0x2c /home/jins/bl_iot_sdk/customer_app/tt_app_temperature/build_out/freertos_riscv_ram/libfreertos_riscv_ram.a(timers.o)
 .text.xTimerGetPeriod
                0x0000000000000000       0x1e /home/jins/bl_iot_sdk/customer_app/tt_app_temperature/build_out/freertos_riscv_ram/libfreertos_riscv_ram.a(timers.o)
 .text.vTimerSetReloadMode
                0x0000000000000000       0x56 /home/jins/bl_iot_sdk/customer_app/tt_app_temperature/build_out/freertos_riscv_ram/libfreertos_riscv_ram.a(timers.o)
 .text.xTimerGetExpiryTime
                0x0000000000000000       0x1e /home/jins/bl_iot_sdk/customer_app/tt_app_temperature/build_out/freertos_riscv_ram/libfreertos_riscv_ram.a(timers.o)
 .text.pcTimerGetName
                0x0000000000000000       0x1e /home/jins/bl_iot_sdk/customer_app/tt_app_temperature/build_out/freertos_riscv_ram/libfreertos_riscv_ram.a(timers.o)
 .text.xTimerIsTimerActive
                0x0000000000000000       0x34 /home/jins/bl_iot_sdk/customer_app/tt_app_temperature/build_out/freertos_riscv_ram/libfreertos_riscv_ram.a(timers.o)
 .text.pvTimerGetTimerID
                0x0000000000000000       0x30 /home/jins/bl_iot_sdk/customer_app/tt_app_temperature/build_out/freertos_riscv_ram/libfreertos_riscv_ram.a(timers.o)
 .text.vTimerSetTimerID
                0x0000000000000000       0x32 /home/jins/bl_iot_sdk/customer_app/tt_app_temperature/build_out/freertos_riscv_ram/libfreertos_riscv_ram.a(timers.o)
 .text.xTimerPendFunctionCallFromISR
                0x0000000000000000       0x2c /home/jins/bl_iot_sdk/customer_app/tt_app_temperature/build_out/freertos_riscv_ram/libfreertos_riscv_ram.a(timers.o)
 .text.xTimerPendFunctionCall
                0x0000000000000000       0x56 /home/jins/bl_iot_sdk/customer_app/tt_app_temperature/build_out/freertos_riscv_ram/libfreertos_riscv_ram.a(timers.o)
 .text.uxTimerGetTimerNumber
                0x0000000000000000        0x4 /home/jins/bl_iot_sdk/customer_app/tt_app_temperature/build_out/freertos_riscv_ram/libfreertos_riscv_ram.a(timers.o)
 .text.vTimerSetTimerNumber
                0x0000000000000000        0x4 /home/jins/bl_iot_sdk/customer_app/tt_app_temperature/build_out/freertos_riscv_ram/libfreertos_riscv_ram.a(timers.o)
 .bss.ucStaticTimerQueueStorage.2344
                0x0000000000000000       0x40 /home/jins/bl_iot_sdk/customer_app/tt_app_temperature/build_out/freertos_riscv_ram/libfreertos_riscv_ram.a(timers.o)
 .bss.xActiveTimerList1
                0x0000000000000000       0x14 /home/jins/bl_iot_sdk/customer_app/tt_app_temperature/build_out/freertos_riscv_ram/libfreertos_riscv_ram.a(timers.o)
 .bss.xActiveTimerList2
                0x0000000000000000       0x14 /home/jins/bl_iot_sdk/customer_app/tt_app_temperature/build_out/freertos_riscv_ram/libfreertos_riscv_ram.a(timers.o)
 .bss.xStaticTimerQueue.2343
                0x0000000000000000       0x50 /home/jins/bl_iot_sdk/customer_app/tt_app_temperature/build_out/freertos_riscv_ram/libfreertos_riscv_ram.a(timers.o)
 .rodata.prvCheckForValidListAndQueue.str1.4
                0x0000000000000000        0x5 /home/jins/bl_iot_sdk/customer_app/tt_app_temperature/build_out/freertos_riscv_ram/libfreertos_riscv_ram.a(timers.o)
 .rodata.xTimerCreateTimerTask.str1.4
                0x0000000000000000        0x8 /home/jins/bl_iot_sdk/customer_app/tt_app_temperature/build_out/freertos_riscv_ram/libfreertos_riscv_ram.a(timers.o)
 .sbss.pxCurrentTimerList
                0x0000000000000000        0x4 /home/jins/bl_iot_sdk/customer_app/tt_app_temperature/build_out/freertos_riscv_ram/libfreertos_riscv_ram.a(timers.o)
 .sbss.pxOverflowTimerList
                0x0000000000000000        0x4 /home/jins/bl_iot_sdk/customer_app/tt_app_temperature/build_out/freertos_riscv_ram/libfreertos_riscv_ram.a(timers.o)
 .sbss.xLastTime.2297
                0x0000000000000000        0x4 /home/jins/bl_iot_sdk/customer_app/tt_app_temperature/build_out/freertos_riscv_ram/libfreertos_riscv_ram.a(timers.o)
 .sbss.xTimerQueue
                0x0000000000000000        0x4 /home/jins/bl_iot_sdk/customer_app/tt_app_temperature/build_out/freertos_riscv_ram/libfreertos_riscv_ram.a(timers.o)
 .sbss.xTimerTaskHandle
                0x0000000000000000        0x4 /home/jins/bl_iot_sdk/customer_app/tt_app_temperature/build_out/freertos_riscv_ram/libfreertos_riscv_ram.a(timers.o)
 .debug_info    0x0000000000000000     0x21b2 /home/jins/bl_iot_sdk/customer_app/tt_app_temperature/build_out/freertos_riscv_ram/libfreertos_riscv_ram.a(timers.o)
 .debug_abbrev  0x0000000000000000      0x3f8 /home/jins/bl_iot_sdk/customer_app/tt_app_temperature/build_out/freertos_riscv_ram/libfreertos_riscv_ram.a(timers.o)
 .debug_loc     0x0000000000000000     0x1309 /home/jins/bl_iot_sdk/customer_app/tt_app_temperature/build_out/freertos_riscv_ram/libfreertos_riscv_ram.a(timers.o)
 .debug_aranges
                0x0000000000000000       0xb8 /home/jins/bl_iot_sdk/customer_app/tt_app_temperature/build_out/freertos_riscv_ram/libfreertos_riscv_ram.a(timers.o)
 .debug_ranges  0x0000000000000000      0x218 /home/jins/bl_iot_sdk/customer_app/tt_app_temperature/build_out/freertos_riscv_ram/libfreertos_riscv_ram.a(timers.o)
 .debug_line    0x0000000000000000     0x16e7 /home/jins/bl_iot_sdk/customer_app/tt_app_temperature/build_out/freertos_riscv_ram/libfreertos_riscv_ram.a(timers.o)
 .debug_str     0x0000000000000000     0x1038 /home/jins/bl_iot_sdk/customer_app/tt_app_temperature/build_out/freertos_riscv_ram/libfreertos_riscv_ram.a(timers.o)
 .comment       0x0000000000000000       0x29 /home/jins/bl_iot_sdk/customer_app/tt_app_temperature/build_out/freertos_riscv_ram/libfreertos_riscv_ram.a(timers.o)
 .debug_frame   0x0000000000000000      0x334 /home/jins/bl_iot_sdk/customer_app/tt_app_temperature/build_out/freertos_riscv_ram/libfreertos_riscv_ram.a(timers.o)
 .riscv.attributes
                0x0000000000000000       0x2b /home/jins/bl_iot_sdk/customer_app/tt_app_temperature/build_out/freertos_riscv_ram/libfreertos_riscv_ram.a(timers.o)
 .text          0x0000000000000000        0x0 /home/jins/bl_iot_sdk/customer_app/tt_app_temperature/build_out/freertos_riscv_ram/libfreertos_riscv_ram.a(port.o)
 .data          0x0000000000000000        0x0 /home/jins/bl_iot_sdk/customer_app/tt_app_temperature/build_out/freertos_riscv_ram/libfreertos_riscv_ram.a(port.o)
 .bss           0x0000000000000000        0x0 /home/jins/bl_iot_sdk/customer_app/tt_app_temperature/build_out/freertos_riscv_ram/libfreertos_riscv_ram.a(port.o)
 .text.vPortSetupTimerInterrupt
                0x0000000000000000       0x4a /home/jins/bl_iot_sdk/customer_app/tt_app_temperature/build_out/freertos_riscv_ram/libfreertos_riscv_ram.a(port.o)
 .text.xPortStartScheduler
                0x0000000000000000       0x4e /home/jins/bl_iot_sdk/customer_app/tt_app_temperature/build_out/freertos_riscv_ram/libfreertos_riscv_ram.a(port.o)
 .text.vPortEndScheduler
                0x0000000000000000        0x2 /home/jins/bl_iot_sdk/customer_app/tt_app_temperature/build_out/freertos_riscv_ram/libfreertos_riscv_ram.a(port.o)
 .sbss.TrapNetCounter
                0x0000000000000000        0x4 /home/jins/bl_iot_sdk/customer_app/tt_app_temperature/build_out/freertos_riscv_ram/libfreertos_riscv_ram.a(port.o)
 .sbss.ullNextTime
                0x0000000000000000        0x8 /home/jins/bl_iot_sdk/customer_app/tt_app_temperature/build_out/freertos_riscv_ram/libfreertos_riscv_ram.a(port.o)
 .sdata.pTrapNetCounter
                0x0000000000000000        0x4 /home/jins/bl_iot_sdk/customer_app/tt_app_temperature/build_out/freertos_riscv_ram/libfreertos_riscv_ram.a(port.o)
 .sdata.pullNextTime
                0x0000000000000000        0x4 /home/jins/bl_iot_sdk/customer_app/tt_app_temperature/build_out/freertos_riscv_ram/libfreertos_riscv_ram.a(port.o)
 .sdata2.pullMachineTimerCompareRegister
                0x0000000000000000        0x4 /home/jins/bl_iot_sdk/customer_app/tt_app_temperature/build_out/freertos_riscv_ram/libfreertos_riscv_ram.a(port.o)
 .sdata2.uxTimerIncrementsForOneTick
                0x0000000000000000        0x4 /home/jins/bl_iot_sdk/customer_app/tt_app_temperature/build_out/freertos_riscv_ram/libfreertos_riscv_ram.a(port.o)
 .sdata2.xISRStackTop
                0x0000000000000000        0x4 /home/jins/bl_iot_sdk/customer_app/tt_app_temperature/build_out/freertos_riscv_ram/libfreertos_riscv_ram.a(port.o)
 .debug_info    0x0000000000000000      0x292 /home/jins/bl_iot_sdk/customer_app/tt_app_temperature/build_out/freertos_riscv_ram/libfreertos_riscv_ram.a(port.o)
 .debug_abbrev  0x0000000000000000      0x154 /home/jins/bl_iot_sdk/customer_app/tt_app_temperature/build_out/freertos_riscv_ram/libfreertos_riscv_ram.a(port.o)
 .debug_loc     0x0000000000000000       0x35 /home/jins/bl_iot_sdk/customer_app/tt_app_temperature/build_out/freertos_riscv_ram/libfreertos_riscv_ram.a(port.o)
 .debug_aranges
                0x0000000000000000       0x30 /home/jins/bl_iot_sdk/customer_app/tt_app_temperature/build_out/freertos_riscv_ram/libfreertos_riscv_ram.a(port.o)
 .debug_ranges  0x0000000000000000       0x40 /home/jins/bl_iot_sdk/customer_app/tt_app_temperature/build_out/freertos_riscv_ram/libfreertos_riscv_ram.a(port.o)
 .debug_line    0x0000000000000000      0x30b /home/jins/bl_iot_sdk/customer_app/tt_app_temperature/build_out/freertos_riscv_ram/libfreertos_riscv_ram.a(port.o)
 .debug_str     0x0000000000000000      0x36b /home/jins/bl_iot_sdk/customer_app/tt_app_temperature/build_out/freertos_riscv_ram/libfreertos_riscv_ram.a(port.o)
 .comment       0x0000000000000000       0x29 /home/jins/bl_iot_sdk/customer_app/tt_app_temperature/build_out/freertos_riscv_ram/libfreertos_riscv_ram.a(port.o)
 .debug_frame   0x0000000000000000       0x50 /home/jins/bl_iot_sdk/customer_app/tt_app_temperature/build_out/freertos_riscv_ram/libfreertos_riscv_ram.a(port.o)
 .riscv.attributes
                0x0000000000000000       0x2b /home/jins/bl_iot_sdk/customer_app/tt_app_temperature/build_out/freertos_riscv_ram/libfreertos_riscv_ram.a(port.o)
 .text          0x0000000000000000        0x0 /home/jins/bl_iot_sdk/customer_app/tt_app_temperature/build_out/freertos_riscv_ram/libfreertos_riscv_ram.a(heap_5.o)
 .data          0x0000000000000000        0x0 /home/jins/bl_iot_sdk/customer_app/tt_app_temperature/build_out/freertos_riscv_ram/libfreertos_riscv_ram.a(heap_5.o)
 .bss           0x0000000000000000        0x0 /home/jins/bl_iot_sdk/customer_app/tt_app_temperature/build_out/freertos_riscv_ram/libfreertos_riscv_ram.a(heap_5.o)
 .text.prvInsertBlockIntoFreeList
                0x0000000000000000       0x52 /home/jins/bl_iot_sdk/customer_app/tt_app_temperature/build_out/freertos_riscv_ram/libfreertos_riscv_ram.a(heap_5.o)
 .text.pvPortMalloc
                0x0000000000000000      0x100 /home/jins/bl_iot_sdk/customer_app/tt_app_temperature/build_out/freertos_riscv_ram/libfreertos_riscv_ram.a(heap_5.o)
 .text.pvPortCalloc
                0x0000000000000000       0x32 /home/jins/bl_iot_sdk/customer_app/tt_app_temperature/build_out/freertos_riscv_ram/libfreertos_riscv_ram.a(heap_5.o)
 .text.vPortFree
                0x0000000000000000       0xa6 /home/jins/bl_iot_sdk/customer_app/tt_app_temperature/build_out/freertos_riscv_ram/libfreertos_riscv_ram.a(heap_5.o)
 .text.xPortGetFreeHeapSize
                0x0000000000000000        0xa /home/jins/bl_iot_sdk/customer_app/tt_app_temperature/build_out/freertos_riscv_ram/libfreertos_riscv_ram.a(heap_5.o)
 .text.xPortGetMinimumEverFreeHeapSize
                0x0000000000000000        0xa /home/jins/bl_iot_sdk/customer_app/tt_app_temperature/build_out/freertos_riscv_ram/libfreertos_riscv_ram.a(heap_5.o)
 .text.vPortDefineHeapRegions
                0x0000000000000000      0x114 /home/jins/bl_iot_sdk/customer_app/tt_app_temperature/build_out/freertos_riscv_ram/libfreertos_riscv_ram.a(heap_5.o)
 .sbss.pxEnd    0x0000000000000000        0x4 /home/jins/bl_iot_sdk/customer_app/tt_app_temperature/build_out/freertos_riscv_ram/libfreertos_riscv_ram.a(heap_5.o)
 .sbss.xBlockAllocatedBit
                0x0000000000000000        0x4 /home/jins/bl_iot_sdk/customer_app/tt_app_temperature/build_out/freertos_riscv_ram/libfreertos_riscv_ram.a(heap_5.o)
 .sbss.xFreeBytesRemaining
                0x0000000000000000        0x4 /home/jins/bl_iot_sdk/customer_app/tt_app_temperature/build_out/freertos_riscv_ram/libfreertos_riscv_ram.a(heap_5.o)
 .sbss.xMinimumEverFreeBytesRemaining
                0x0000000000000000        0x4 /home/jins/bl_iot_sdk/customer_app/tt_app_temperature/build_out/freertos_riscv_ram/libfreertos_riscv_ram.a(heap_5.o)
 .sbss.xStart   0x0000000000000000        0x8 /home/jins/bl_iot_sdk/customer_app/tt_app_temperature/build_out/freertos_riscv_ram/libfreertos_riscv_ram.a(heap_5.o)
 .debug_info    0x0000000000000000      0xd91 /home/jins/bl_iot_sdk/customer_app/tt_app_temperature/build_out/freertos_riscv_ram/libfreertos_riscv_ram.a(heap_5.o)
 .debug_abbrev  0x0000000000000000      0x34c /home/jins/bl_iot_sdk/customer_app/tt_app_temperature/build_out/freertos_riscv_ram/libfreertos_riscv_ram.a(heap_5.o)
 .debug_loc     0x0000000000000000      0x4b9 /home/jins/bl_iot_sdk/customer_app/tt_app_temperature/build_out/freertos_riscv_ram/libfreertos_riscv_ram.a(heap_5.o)
 .debug_aranges
                0x0000000000000000       0x50 /home/jins/bl_iot_sdk/customer_app/tt_app_temperature/build_out/freertos_riscv_ram/libfreertos_riscv_ram.a(heap_5.o)
 .debug_ranges  0x0000000000000000       0x40 /home/jins/bl_iot_sdk/customer_app/tt_app_temperature/build_out/freertos_riscv_ram/libfreertos_riscv_ram.a(heap_5.o)
 .debug_line    0x0000000000000000      0xc63 /home/jins/bl_iot_sdk/customer_app/tt_app_temperature/build_out/freertos_riscv_ram/libfreertos_riscv_ram.a(heap_5.o)
 .debug_str     0x0000000000000000      0x8b5 /home/jins/bl_iot_sdk/customer_app/tt_app_temperature/build_out/freertos_riscv_ram/libfreertos_riscv_ram.a(heap_5.o)
 .comment       0x0000000000000000       0x29 /home/jins/bl_iot_sdk/customer_app/tt_app_temperature/build_out/freertos_riscv_ram/libfreertos_riscv_ram.a(heap_5.o)
 .debug_frame   0x0000000000000000      0x10c /home/jins/bl_iot_sdk/customer_app/tt_app_temperature/build_out/freertos_riscv_ram/libfreertos_riscv_ram.a(heap_5.o)
 .riscv.attributes
                0x0000000000000000       0x2b /home/jins/bl_iot_sdk/customer_app/tt_app_temperature/build_out/freertos_riscv_ram/libfreertos_riscv_ram.a(heap_5.o)
 .text          0x0000000000000000        0x0 /home/jins/bl_iot_sdk/customer_app/tt_app_temperature/build_out/freertos_riscv_ram/libfreertos_riscv_ram.a(list.o)
 .data          0x0000000000000000        0x0 /home/jins/bl_iot_sdk/customer_app/tt_app_temperature/build_out/freertos_riscv_ram/libfreertos_riscv_ram.a(list.o)
 .bss           0x0000000000000000        0x0 /home/jins/bl_iot_sdk/customer_app/tt_app_temperature/build_out/freertos_riscv_ram/libfreertos_riscv_ram.a(list.o)
 .text.vListInitialise
                0x0000000000000000       0x14 /home/jins/bl_iot_sdk/customer_app/tt_app_temperature/build_out/freertos_riscv_ram/libfreertos_riscv_ram.a(list.o)
 .text.vListInitialiseItem
                0x0000000000000000        0x6 /home/jins/bl_iot_sdk/customer_app/tt_app_temperature/build_out/freertos_riscv_ram/libfreertos_riscv_ram.a(list.o)
 .text.vListInsertEnd
                0x0000000000000000       0x16 /home/jins/bl_iot_sdk/customer_app/tt_app_temperature/build_out/freertos_riscv_ram/libfreertos_riscv_ram.a(list.o)
 .text.vListInsert
                0x0000000000000000       0x30 /home/jins/bl_iot_sdk/customer_app/tt_app_temperature/build_out/freertos_riscv_ram/libfreertos_riscv_ram.a(list.o)
 .text.uxListRemove
                0x0000000000000000       0x32 /home/jins/bl_iot_sdk/customer_app/tt_app_temperature/build_out/freertos_riscv_ram/libfreertos_riscv_ram.a(list.o)
 .debug_info    0x0000000000000000      0xb7f /home/jins/bl_iot_sdk/customer_app/tt_app_temperature/build_out/freertos_riscv_ram/libfreertos_riscv_ram.a(list.o)
 .debug_abbrev  0x0000000000000000      0x254 /home/jins/bl_iot_sdk/customer_app/tt_app_temperature/build_out/freertos_riscv_ram/libfreertos_riscv_ram.a(list.o)
 .debug_loc     0x0000000000000000       0x6b /home/jins/bl_iot_sdk/customer_app/tt_app_temperature/build_out/freertos_riscv_ram/libfreertos_riscv_ram.a(list.o)
 .debug_aranges
                0x0000000000000000       0x40 /home/jins/bl_iot_sdk/customer_app/tt_app_temperature/build_out/freertos_riscv_ram/libfreertos_riscv_ram.a(list.o)
 .debug_ranges  0x0000000000000000       0x30 /home/jins/bl_iot_sdk/customer_app/tt_app_temperature/build_out/freertos_riscv_ram/libfreertos_riscv_ram.a(list.o)
 .debug_line    0x0000000000000000      0x5f6 /home/jins/bl_iot_sdk/customer_app/tt_app_temperature/build_out/freertos_riscv_ram/libfreertos_riscv_ram.a(list.o)
 .debug_str     0x0000000000000000      0x72d /home/jins/bl_iot_sdk/customer_app/tt_app_temperature/build_out/freertos_riscv_ram/libfreertos_riscv_ram.a(list.o)
 .comment       0x0000000000000000       0x29 /home/jins/bl_iot_sdk/customer_app/tt_app_temperature/build_out/freertos_riscv_ram/libfreertos_riscv_ram.a(list.o)
 .debug_frame   0x0000000000000000       0x60 /home/jins/bl_iot_sdk/customer_app/tt_app_temperature/build_out/freertos_riscv_ram/libfreertos_riscv_ram.a(list.o)
 .riscv.attributes
                0x0000000000000000       0x2b /home/jins/bl_iot_sdk/customer_app/tt_app_temperature/build_out/freertos_riscv_ram/libfreertos_riscv_ram.a(list.o)
 .text          0x0000000000000000        0x0 /home/jins/bl_iot_sdk/customer_app/tt_app_temperature/build_out/freertos_riscv_ram/libfreertos_riscv_ram.a(queue.o)
 .data          0x0000000000000000        0x0 /home/jins/bl_iot_sdk/customer_app/tt_app_temperature/build_out/freertos_riscv_ram/libfreertos_riscv_ram.a(queue.o)
 .bss           0x0000000000000000        0x0 /home/jins/bl_iot_sdk/customer_app/tt_app_temperature/build_out/freertos_riscv_ram/libfreertos_riscv_ram.a(queue.o)
 .text.prvCopyDataToQueue
                0x0000000000000000       0xb0 /home/jins/bl_iot_sdk/customer_app/tt_app_temperature/build_out/freertos_riscv_ram/libfreertos_riscv_ram.a(queue.o)
 .text.prvCopyDataFromQueue
                0x0000000000000000       0x22 /home/jins/bl_iot_sdk/customer_app/tt_app_temperature/build_out/freertos_riscv_ram/libfreertos_riscv_ram.a(queue.o)
 .text.prvUnlockQueue
                0x0000000000000000       0xd6 /home/jins/bl_iot_sdk/customer_app/tt_app_temperature/build_out/freertos_riscv_ram/libfreertos_riscv_ram.a(queue.o)
 .text.xQueueGenericReset
                0x0000000000000000       0xb2 /home/jins/bl_iot_sdk/customer_app/tt_app_temperature/build_out/freertos_riscv_ram/libfreertos_riscv_ram.a(queue.o)
 .text.xQueueGenericCreateStatic
                0x0000000000000000       0x94 /home/jins/bl_iot_sdk/customer_app/tt_app_temperature/build_out/freertos_riscv_ram/libfreertos_riscv_ram.a(queue.o)
 .text.xQueueGenericCreate
                0x0000000000000000       0x90 /home/jins/bl_iot_sdk/customer_app/tt_app_temperature/build_out/freertos_riscv_ram/libfreertos_riscv_ram.a(queue.o)
 .text.xQueueCreateCountingSemaphoreStatic
                0x0000000000000000       0x4e /home/jins/bl_iot_sdk/customer_app/tt_app_temperature/build_out/freertos_riscv_ram/libfreertos_riscv_ram.a(queue.o)
 .text.xQueueCreateCountingSemaphore
                0x0000000000000000       0x44 /home/jins/bl_iot_sdk/customer_app/tt_app_temperature/build_out/freertos_riscv_ram/libfreertos_riscv_ram.a(queue.o)
 .text.xQueueGenericSend
                0x0000000000000000      0x1c4 /home/jins/bl_iot_sdk/customer_app/tt_app_temperature/build_out/freertos_riscv_ram/libfreertos_riscv_ram.a(queue.o)
 .text.xQueueCreateMutexStatic
                0x0000000000000000       0x40 /home/jins/bl_iot_sdk/customer_app/tt_app_temperature/build_out/freertos_riscv_ram/libfreertos_riscv_ram.a(queue.o)
 .text.xQueueGiveMutexRecursive
                0x0000000000000000       0x54 /home/jins/bl_iot_sdk/customer_app/tt_app_temperature/build_out/freertos_riscv_ram/libfreertos_riscv_ram.a(queue.o)
 .text.xQueueCreateMutex
                0x0000000000000000       0x3c /home/jins/bl_iot_sdk/customer_app/tt_app_temperature/build_out/freertos_riscv_ram/libfreertos_riscv_ram.a(queue.o)
 .text.xQueueGenericSendFromISR
                0x0000000000000000       0xce /home/jins/bl_iot_sdk/customer_app/tt_app_temperature/build_out/freertos_riscv_ram/libfreertos_riscv_ram.a(queue.o)
 .text.xQueueGiveFromISR
                0x0000000000000000       0x8a /home/jins/bl_iot_sdk/customer_app/tt_app_temperature/build_out/freertos_riscv_ram/libfreertos_riscv_ram.a(queue.o)
 .text.xQueueReceive
                0x0000000000000000      0x1c0 /home/jins/bl_iot_sdk/customer_app/tt_app_temperature/build_out/freertos_riscv_ram/libfreertos_riscv_ram.a(queue.o)
 .text.xQueueSemaphoreTake
                0x0000000000000000      0x218 /home/jins/bl_iot_sdk/customer_app/tt_app_temperature/build_out/freertos_riscv_ram/libfreertos_riscv_ram.a(queue.o)
 .text.xQueueTakeMutexRecursive
                0x0000000000000000       0x5c /home/jins/bl_iot_sdk/customer_app/tt_app_temperature/build_out/freertos_riscv_ram/libfreertos_riscv_ram.a(queue.o)
 .text.xQueuePeek
                0x0000000000000000      0x1a4 /home/jins/bl_iot_sdk/customer_app/tt_app_temperature/build_out/freertos_riscv_ram/libfreertos_riscv_ram.a(queue.o)
 .text.xQueueReceiveFromISR
                0x0000000000000000       0xa2 /home/jins/bl_iot_sdk/customer_app/tt_app_temperature/build_out/freertos_riscv_ram/libfreertos_riscv_ram.a(queue.o)
 .text.xQueuePeekFromISR
                0x0000000000000000       0x70 /home/jins/bl_iot_sdk/customer_app/tt_app_temperature/build_out/freertos_riscv_ram/libfreertos_riscv_ram.a(queue.o)
 .text.uxQueueMessagesWaiting
                0x0000000000000000       0x30 /home/jins/bl_iot_sdk/customer_app/tt_app_temperature/build_out/freertos_riscv_ram/libfreertos_riscv_ram.a(queue.o)
 .text.uxQueueSpacesAvailable
                0x0000000000000000       0x38 /home/jins/bl_iot_sdk/customer_app/tt_app_temperature/build_out/freertos_riscv_ram/libfreertos_riscv_ram.a(queue.o)
 .text.uxQueueMessagesWaitingFromISR
                0x0000000000000000       0x1e /home/jins/bl_iot_sdk/customer_app/tt_app_temperature/build_out/freertos_riscv_ram/libfreertos_riscv_ram.a(queue.o)
 .text.vQueueDelete
                0x0000000000000000       0x92 /home/jins/bl_iot_sdk/customer_app/tt_app_temperature/build_out/freertos_riscv_ram/libfreertos_riscv_ram.a(queue.o)
 .text.uxQueueGetQueueNumber
                0x0000000000000000        0x4 /home/jins/bl_iot_sdk/customer_app/tt_app_temperature/build_out/freertos_riscv_ram/libfreertos_riscv_ram.a(queue.o)
 .text.vQueueSetQueueNumber
                0x0000000000000000        0x4 /home/jins/bl_iot_sdk/customer_app/tt_app_temperature/build_out/freertos_riscv_ram/libfreertos_riscv_ram.a(queue.o)
 .text.ucQueueGetQueueType
                0x0000000000000000        0x6 /home/jins/bl_iot_sdk/customer_app/tt_app_temperature/build_out/freertos_riscv_ram/libfreertos_riscv_ram.a(queue.o)
 .text.xQueueIsQueueEmptyFromISR
                0x0000000000000000       0x26 /home/jins/bl_iot_sdk/customer_app/tt_app_temperature/build_out/freertos_riscv_ram/libfreertos_riscv_ram.a(queue.o)
 .text.xQueueIsQueueFullFromISR
                0x0000000000000000       0x2e /home/jins/bl_iot_sdk/customer_app/tt_app_temperature/build_out/freertos_riscv_ram/libfreertos_riscv_ram.a(queue.o)
 .text.vQueueAddToRegistry
                0x0000000000000000       0x28 /home/jins/bl_iot_sdk/customer_app/tt_app_temperature/build_out/freertos_riscv_ram/libfreertos_riscv_ram.a(queue.o)
 .text.pcQueueGetName
                0x0000000000000000       0x2a /home/jins/bl_iot_sdk/customer_app/tt_app_temperature/build_out/freertos_riscv_ram/libfreertos_riscv_ram.a(queue.o)
 .text.vQueueUnregisterQueue
                0x0000000000000000       0x2e /home/jins/bl_iot_sdk/customer_app/tt_app_temperature/build_out/freertos_riscv_ram/libfreertos_riscv_ram.a(queue.o)
 .text.vQueueWaitForMessageRestricted
                0x0000000000000000       0x80 /home/jins/bl_iot_sdk/customer_app/tt_app_temperature/build_out/freertos_riscv_ram/libfreertos_riscv_ram.a(queue.o)
 .debug_info    0x0000000000000000     0x2a58 /home/jins/bl_iot_sdk/customer_app/tt_app_temperature/build_out/freertos_riscv_ram/libfreertos_riscv_ram.a(queue.o)
 .debug_abbrev  0x0000000000000000      0x464 /home/jins/bl_iot_sdk/customer_app/tt_app_temperature/build_out/freertos_riscv_ram/libfreertos_riscv_ram.a(queue.o)
 .debug_loc     0x0000000000000000     0x22fe /home/jins/bl_iot_sdk/customer_app/tt_app_temperature/build_out/freertos_riscv_ram/libfreertos_riscv_ram.a(queue.o)
 .debug_aranges
                0x0000000000000000      0x120 /home/jins/bl_iot_sdk/customer_app/tt_app_temperature/build_out/freertos_riscv_ram/libfreertos_riscv_ram.a(queue.o)
 .debug_ranges  0x0000000000000000      0x340 /home/jins/bl_iot_sdk/customer_app/tt_app_temperature/build_out/freertos_riscv_ram/libfreertos_riscv_ram.a(queue.o)
 .debug_line    0x0000000000000000     0x32c9 /home/jins/bl_iot_sdk/customer_app/tt_app_temperature/build_out/freertos_riscv_ram/libfreertos_riscv_ram.a(queue.o)
 .debug_str     0x0000000000000000     0x1040 /home/jins/bl_iot_sdk/customer_app/tt_app_temperature/build_out/freertos_riscv_ram/libfreertos_riscv_ram.a(queue.o)
 .comment       0x0000000000000000       0x29 /home/jins/bl_iot_sdk/customer_app/tt_app_temperature/build_out/freertos_riscv_ram/libfreertos_riscv_ram.a(queue.o)
 .debug_frame   0x0000000000000000      0x57c /home/jins/bl_iot_sdk/customer_app/tt_app_temperature/build_out/freertos_riscv_ram/libfreertos_riscv_ram.a(queue.o)
 .riscv.attributes
                0x0000000000000000       0x2b /home/jins/bl_iot_sdk/customer_app/tt_app_temperature/build_out/freertos_riscv_ram/libfreertos_riscv_ram.a(queue.o)
 COMMON         0x0000000000000000       0x40 /home/jins/bl_iot_sdk/customer_app/tt_app_temperature/build_out/freertos_riscv_ram/libfreertos_riscv_ram.a(queue.o)
 .text          0x0000000000000000        0x0 /home/jins/bl_iot_sdk/customer_app/tt_app_temperature/build_out/bltime/libbltime.a(bl_sys_time.o)
 .data          0x0000000000000000        0x0 /home/jins/bl_iot_sdk/customer_app/tt_app_temperature/build_out/bltime/libbltime.a(bl_sys_time.o)
 .bss           0x0000000000000000        0x0 /home/jins/bl_iot_sdk/customer_app/tt_app_temperature/build_out/bltime/libbltime.a(bl_sys_time.o)
 .text.bl_sys_time_update
                0x0000000000000000       0x38 /home/jins/bl_iot_sdk/customer_app/tt_app_temperature/build_out/bltime/libbltime.a(bl_sys_time.o)
 .text.bl_sys_time_get
                0x0000000000000000       0x58 /home/jins/bl_iot_sdk/customer_app/tt_app_temperature/build_out/bltime/libbltime.a(bl_sys_time.o)
 .text.bl_sys_time_sync_init
                0x0000000000000000       0x44 /home/jins/bl_iot_sdk/customer_app/tt_app_temperature/build_out/bltime/libbltime.a(bl_sys_time.o)
 .text.bl_sys_time_sync_state
                0x0000000000000000       0x74 /home/jins/bl_iot_sdk/customer_app/tt_app_temperature/build_out/bltime/libbltime.a(bl_sys_time.o)
 .text.bl_sys_time_sync
                0x0000000000000000       0x26 /home/jins/bl_iot_sdk/customer_app/tt_app_temperature/build_out/bltime/libbltime.a(bl_sys_time.o)
 .sbss.epoch_time
                0x0000000000000000        0x8 /home/jins/bl_iot_sdk/customer_app/tt_app_temperature/build_out/bltime/libbltime.a(bl_sys_time.o)
 .sbss.init_tick_rtc
                0x0000000000000000        0x4 /home/jins/bl_iot_sdk/customer_app/tt_app_temperature/build_out/bltime/libbltime.a(bl_sys_time.o)
 .sbss.init_tick_rtos
                0x0000000000000000        0x4 /home/jins/bl_iot_sdk/customer_app/tt_app_temperature/build_out/bltime/libbltime.a(bl_sys_time.o)
 .sbss.sync_init
                0x0000000000000000        0x4 /home/jins/bl_iot_sdk/customer_app/tt_app_temperature/build_out/bltime/libbltime.a(bl_sys_time.o)
 .sbss.time_synced
                0x0000000000000000        0x8 /home/jins/bl_iot_sdk/customer_app/tt_app_temperature/build_out/bltime/libbltime.a(bl_sys_time.o)
 .debug_info    0x0000000000000000      0xc0b /home/jins/bl_iot_sdk/customer_app/tt_app_temperature/build_out/bltime/libbltime.a(bl_sys_time.o)
 .debug_abbrev  0x0000000000000000      0x2eb /home/jins/bl_iot_sdk/customer_app/tt_app_temperature/build_out/bltime/libbltime.a(bl_sys_time.o)
 .debug_loc     0x0000000000000000      0x19e /home/jins/bl_iot_sdk/customer_app/tt_app_temperature/build_out/bltime/libbltime.a(bl_sys_time.o)
 .debug_aranges
                0x0000000000000000       0x40 /home/jins/bl_iot_sdk/customer_app/tt_app_temperature/build_out/bltime/libbltime.a(bl_sys_time.o)
 .debug_ranges  0x0000000000000000       0x30 /home/jins/bl_iot_sdk/customer_app/tt_app_temperature/build_out/bltime/libbltime.a(bl_sys_time.o)
 .debug_line    0x0000000000000000      0x65e /home/jins/bl_iot_sdk/customer_app/tt_app_temperature/build_out/bltime/libbltime.a(bl_sys_time.o)
 .debug_str     0x0000000000000000      0x755 /home/jins/bl_iot_sdk/customer_app/tt_app_temperature/build_out/bltime/libbltime.a(bl_sys_time.o)
 .comment       0x0000000000000000       0x29 /home/jins/bl_iot_sdk/customer_app/tt_app_temperature/build_out/bltime/libbltime.a(bl_sys_time.o)
 .debug_frame   0x0000000000000000       0xb4 /home/jins/bl_iot_sdk/customer_app/tt_app_temperature/build_out/bltime/libbltime.a(bl_sys_time.o)
 .riscv.attributes
                0x0000000000000000       0x2b /home/jins/bl_iot_sdk/customer_app/tt_app_temperature/build_out/bltime/libbltime.a(bl_sys_time.o)
 .text          0x0000000000000000        0x0 /home/jins/bl_iot_sdk/customer_app/tt_app_temperature/build_out/hal_drv/libhal_drv.a(bl_rtc.o)
 .data          0x0000000000000000        0x0 /home/jins/bl_iot_sdk/customer_app/tt_app_temperature/build_out/hal_drv/libhal_drv.a(bl_rtc.o)
 .bss           0x0000000000000000        0x0 /home/jins/bl_iot_sdk/customer_app/tt_app_temperature/build_out/hal_drv/libhal_drv.a(bl_rtc.o)
 .text.bl_rtc_init
                0x0000000000000000       0x22 /home/jins/bl_iot_sdk/customer_app/tt_app_temperature/build_out/hal_drv/libhal_drv.a(bl_rtc.o)
 .text.bl_rtc_get_counter
                0x0000000000000000       0x1a /home/jins/bl_iot_sdk/customer_app/tt_app_temperature/build_out/hal_drv/libhal_drv.a(bl_rtc.o)
 .text.bl_rtc_get_timestamp_ms
                0x0000000000000000       0x54 /home/jins/bl_iot_sdk/customer_app/tt_app_temperature/build_out/hal_drv/libhal_drv.a(bl_rtc.o)
 .debug_info    0x0000000000000000      0xa76 /home/jins/bl_iot_sdk/customer_app/tt_app_temperature/build_out/hal_drv/libhal_drv.a(bl_rtc.o)
 .debug_abbrev  0x0000000000000000      0x282 /home/jins/bl_iot_sdk/customer_app/tt_app_temperature/build_out/hal_drv/libhal_drv.a(bl_rtc.o)
 .debug_loc     0x0000000000000000       0x18 /home/jins/bl_iot_sdk/customer_app/tt_app_temperature/build_out/hal_drv/libhal_drv.a(bl_rtc.o)
 .debug_aranges
                0x0000000000000000       0x30 /home/jins/bl_iot_sdk/customer_app/tt_app_temperature/build_out/hal_drv/libhal_drv.a(bl_rtc.o)
 .debug_ranges  0x0000000000000000       0x20 /home/jins/bl_iot_sdk/customer_app/tt_app_temperature/build_out/hal_drv/libhal_drv.a(bl_rtc.o)
 .debug_line    0x0000000000000000      0x363 /home/jins/bl_iot_sdk/customer_app/tt_app_temperature/build_out/hal_drv/libhal_drv.a(bl_rtc.o)
 .debug_str     0x0000000000000000      0x6a0 /home/jins/bl_iot_sdk/customer_app/tt_app_temperature/build_out/hal_drv/libhal_drv.a(bl_rtc.o)
 .comment       0x0000000000000000       0x29 /home/jins/bl_iot_sdk/customer_app/tt_app_temperature/build_out/hal_drv/libhal_drv.a(bl_rtc.o)
 .debug_frame   0x0000000000000000       0x64 /home/jins/bl_iot_sdk/customer_app/tt_app_temperature/build_out/hal_drv/libhal_drv.a(bl_rtc.o)
 .riscv.attributes
                0x0000000000000000       0x2b /home/jins/bl_iot_sdk/customer_app/tt_app_temperature/build_out/hal_drv/libhal_drv.a(bl_rtc.o)
 .data          0x0000000000000000        0x0 /home/jins/bl_iot_sdk/toolchain/riscv/Linux/bin/../lib/gcc/riscv64-unknown-elf/8.3.0/../../../../riscv64-unknown-elf/lib/rv32imf/ilp32f/libm.a(lib_a-s_modf.o)
 .bss           0x0000000000000000        0x0 /home/jins/bl_iot_sdk/toolchain/riscv/Linux/bin/../lib/gcc/riscv64-unknown-elf/8.3.0/../../../../riscv64-unknown-elf/lib/rv32imf/ilp32f/libm.a(lib_a-s_modf.o)
 .data          0x0000000000000000        0x0 /home/jins/bl_iot_sdk/toolchain/riscv/Linux/bin/../lib/gcc/riscv64-unknown-elf/8.3.0/rv32imf/ilp32f/libgcc.a(_clzsi2.o)
 .bss           0x0000000000000000        0x0 /home/jins/bl_iot_sdk/toolchain/riscv/Linux/bin/../lib/gcc/riscv64-unknown-elf/8.3.0/rv32imf/ilp32f/libgcc.a(_clzsi2.o)
 .data          0x0000000000000000        0x0 /home/jins/bl_iot_sdk/toolchain/riscv/Linux/bin/../lib/gcc/riscv64-unknown-elf/8.3.0/rv32imf/ilp32f/libgcc.a(_udivdi3.o)
 .bss           0x0000000000000000        0x0 /home/jins/bl_iot_sdk/toolchain/riscv/Linux/bin/../lib/gcc/riscv64-unknown-elf/8.3.0/rv32imf/ilp32f/libgcc.a(_udivdi3.o)
 .eh_frame      0x0000000000000000       0x28 /home/jins/bl_iot_sdk/toolchain/riscv/Linux/bin/../lib/gcc/riscv64-unknown-elf/8.3.0/rv32imf/ilp32f/libgcc.a(_udivdi3.o)
 .data          0x0000000000000000        0x0 /home/jins/bl_iot_sdk/toolchain/riscv/Linux/bin/../lib/gcc/riscv64-unknown-elf/8.3.0/rv32imf/ilp32f/libgcc.a(_umoddi3.o)
 .bss           0x0000000000000000        0x0 /home/jins/bl_iot_sdk/toolchain/riscv/Linux/bin/../lib/gcc/riscv64-unknown-elf/8.3.0/rv32imf/ilp32f/libgcc.a(_umoddi3.o)
 .eh_frame      0x0000000000000000       0x28 /home/jins/bl_iot_sdk/toolchain/riscv/Linux/bin/../lib/gcc/riscv64-unknown-elf/8.3.0/rv32imf/ilp32f/libgcc.a(_umoddi3.o)
 .data          0x0000000000000000        0x0 /home/jins/bl_iot_sdk/toolchain/riscv/Linux/bin/../lib/gcc/riscv64-unknown-elf/8.3.0/rv32imf/ilp32f/libgcc.a(adddf3.o)
 .bss           0x0000000000000000        0x0 /home/jins/bl_iot_sdk/toolchain/riscv/Linux/bin/../lib/gcc/riscv64-unknown-elf/8.3.0/rv32imf/ilp32f/libgcc.a(adddf3.o)
 .data          0x0000000000000000        0x0 /home/jins/bl_iot_sdk/toolchain/riscv/Linux/bin/../lib/gcc/riscv64-unknown-elf/8.3.0/rv32imf/ilp32f/libgcc.a(divdf3.o)
 .bss           0x0000000000000000        0x0 /home/jins/bl_iot_sdk/toolchain/riscv/Linux/bin/../lib/gcc/riscv64-unknown-elf/8.3.0/rv32imf/ilp32f/libgcc.a(divdf3.o)
 .data          0x0000000000000000        0x0 /home/jins/bl_iot_sdk/toolchain/riscv/Linux/bin/../lib/gcc/riscv64-unknown-elf/8.3.0/rv32imf/ilp32f/libgcc.a(eqdf2.o)
 .bss           0x0000000000000000        0x0 /home/jins/bl_iot_sdk/toolchain/riscv/Linux/bin/../lib/gcc/riscv64-unknown-elf/8.3.0/rv32imf/ilp32f/libgcc.a(eqdf2.o)
 .data          0x0000000000000000        0x0 /home/jins/bl_iot_sdk/toolchain/riscv/Linux/bin/../lib/gcc/riscv64-unknown-elf/8.3.0/rv32imf/ilp32f/libgcc.a(gedf2.o)
 .bss           0x0000000000000000        0x0 /home/jins/bl_iot_sdk/toolchain/riscv/Linux/bin/../lib/gcc/riscv64-unknown-elf/8.3.0/rv32imf/ilp32f/libgcc.a(gedf2.o)
 .data          0x0000000000000000        0x0 /home/jins/bl_iot_sdk/toolchain/riscv/Linux/bin/../lib/gcc/riscv64-unknown-elf/8.3.0/rv32imf/ilp32f/libgcc.a(ledf2.o)
 .bss           0x0000000000000000        0x0 /home/jins/bl_iot_sdk/toolchain/riscv/Linux/bin/../lib/gcc/riscv64-unknown-elf/8.3.0/rv32imf/ilp32f/libgcc.a(ledf2.o)
 .data          0x0000000000000000        0x0 /home/jins/bl_iot_sdk/toolchain/riscv/Linux/bin/../lib/gcc/riscv64-unknown-elf/8.3.0/rv32imf/ilp32f/libgcc.a(muldf3.o)
 .bss           0x0000000000000000        0x0 /home/jins/bl_iot_sdk/toolchain/riscv/Linux/bin/../lib/gcc/riscv64-unknown-elf/8.3.0/rv32imf/ilp32f/libgcc.a(muldf3.o)
 .data          0x0000000000000000        0x0 /home/jins/bl_iot_sdk/toolchain/riscv/Linux/bin/../lib/gcc/riscv64-unknown-elf/8.3.0/rv32imf/ilp32f/libgcc.a(subdf3.o)
 .bss           0x0000000000000000        0x0 /home/jins/bl_iot_sdk/toolchain/riscv/Linux/bin/../lib/gcc/riscv64-unknown-elf/8.3.0/rv32imf/ilp32f/libgcc.a(subdf3.o)
 .data          0x0000000000000000        0x0 /home/jins/bl_iot_sdk/toolchain/riscv/Linux/bin/../lib/gcc/riscv64-unknown-elf/8.3.0/rv32imf/ilp32f/libgcc.a(fixdfsi.o)
 .bss           0x0000000000000000        0x0 /home/jins/bl_iot_sdk/toolchain/riscv/Linux/bin/../lib/gcc/riscv64-unknown-elf/8.3.0/rv32imf/ilp32f/libgcc.a(fixdfsi.o)
 .text          0x0000000000000000        0x0 /home/jins/bl_iot_sdk/toolchain/riscv/Linux/bin/../lib/gcc/riscv64-unknown-elf/8.3.0/rv32imf/ilp32f/libgcc.a(_clz.o)
 .data          0x0000000000000000        0x0 /home/jins/bl_iot_sdk/toolchain/riscv/Linux/bin/../lib/gcc/riscv64-unknown-elf/8.3.0/rv32imf/ilp32f/libgcc.a(_clz.o)
 .bss           0x0000000000000000        0x0 /home/jins/bl_iot_sdk/toolchain/riscv/Linux/bin/../lib/gcc/riscv64-unknown-elf/8.3.0/rv32imf/ilp32f/libgcc.a(_clz.o)
 .data          0x0000000000000000        0x0 /home/jins/bl_iot_sdk/toolchain/riscv/Linux/bin/../lib/gcc/riscv64-unknown-elf/8.3.0/../../../../riscv64-unknown-elf/lib/rv32imf/ilp32f/libc.a(lib_a-memcpy.o)
 .bss           0x0000000000000000        0x0 /home/jins/bl_iot_sdk/toolchain/riscv/Linux/bin/../lib/gcc/riscv64-unknown-elf/8.3.0/../../../../riscv64-unknown-elf/lib/rv32imf/ilp32f/libc.a(lib_a-memcpy.o)
 .text          0x0000000000000000       0xdc /home/jins/bl_iot_sdk/toolchain/riscv/Linux/bin/../lib/gcc/riscv64-unknown-elf/8.3.0/../../../../riscv64-unknown-elf/lib/rv32imf/ilp32f/libc.a(lib_a-memset.o)
 .data          0x0000000000000000        0x0 /home/jins/bl_iot_sdk/toolchain/riscv/Linux/bin/../lib/gcc/riscv64-unknown-elf/8.3.0/../../../../riscv64-unknown-elf/lib/rv32imf/ilp32f/libc.a(lib_a-memset.o)
 .bss           0x0000000000000000        0x0 /home/jins/bl_iot_sdk/toolchain/riscv/Linux/bin/../lib/gcc/riscv64-unknown-elf/8.3.0/../../../../riscv64-unknown-elf/lib/rv32imf/ilp32f/libc.a(lib_a-memset.o)
 .riscv.attributes
                0x0000000000000000       0x24 /home/jins/bl_iot_sdk/toolchain/riscv/Linux/bin/../lib/gcc/riscv64-unknown-elf/8.3.0/../../../../riscv64-unknown-elf/lib/rv32imf/ilp32f/libc.a(lib_a-memset.o)
 .text          0x0000000000000000      0x17c /home/jins/bl_iot_sdk/toolchain/riscv/Linux/bin/../lib/gcc/riscv64-unknown-elf/8.3.0/../../../../riscv64-unknown-elf/lib/rv32imf/ilp32f/libc.a(lib_a-strcmp.o)
 .data          0x0000000000000000        0x0 /home/jins/bl_iot_sdk/toolchain/riscv/Linux/bin/../lib/gcc/riscv64-unknown-elf/8.3.0/../../../../riscv64-unknown-elf/lib/rv32imf/ilp32f/libc.a(lib_a-strcmp.o)
 .bss           0x0000000000000000        0x0 /home/jins/bl_iot_sdk/toolchain/riscv/Linux/bin/../lib/gcc/riscv64-unknown-elf/8.3.0/../../../../riscv64-unknown-elf/lib/rv32imf/ilp32f/libc.a(lib_a-strcmp.o)
 .riscv.attributes
                0x0000000000000000       0x24 /home/jins/bl_iot_sdk/toolchain/riscv/Linux/bin/../lib/gcc/riscv64-unknown-elf/8.3.0/../../../../riscv64-unknown-elf/lib/rv32imf/ilp32f/libc.a(lib_a-strcmp.o)
 .text          0x0000000000000000       0xb0 /home/jins/bl_iot_sdk/toolchain/riscv/Linux/bin/../lib/gcc/riscv64-unknown-elf/8.3.0/../../../../riscv64-unknown-elf/lib/rv32imf/ilp32f/libc.a(lib_a-strcpy.o)
 .data          0x0000000000000000        0x0 /home/jins/bl_iot_sdk/toolchain/riscv/Linux/bin/../lib/gcc/riscv64-unknown-elf/8.3.0/../../../../riscv64-unknown-elf/lib/rv32imf/ilp32f/libc.a(lib_a-strcpy.o)
 .bss           0x0000000000000000        0x0 /home/jins/bl_iot_sdk/toolchain/riscv/Linux/bin/../lib/gcc/riscv64-unknown-elf/8.3.0/../../../../riscv64-unknown-elf/lib/rv32imf/ilp32f/libc.a(lib_a-strcpy.o)
 .comment       0x0000000000000000       0x29 /home/jins/bl_iot_sdk/toolchain/riscv/Linux/bin/../lib/gcc/riscv64-unknown-elf/8.3.0/../../../../riscv64-unknown-elf/lib/rv32imf/ilp32f/libc.a(lib_a-strcpy.o)
 .riscv.attributes
                0x0000000000000000       0x26 /home/jins/bl_iot_sdk/toolchain/riscv/Linux/bin/../lib/gcc/riscv64-unknown-elf/8.3.0/../../../../riscv64-unknown-elf/lib/rv32imf/ilp32f/libc.a(lib_a-strcpy.o)
 .data          0x0000000000000000        0x0 /home/jins/bl_iot_sdk/toolchain/riscv/Linux/bin/../lib/gcc/riscv64-unknown-elf/8.3.0/../../../../riscv64-unknown-elf/lib/rv32imf/ilp32f/libc.a(lib_a-strlen.o)
 .bss           0x0000000000000000        0x0 /home/jins/bl_iot_sdk/toolchain/riscv/Linux/bin/../lib/gcc/riscv64-unknown-elf/8.3.0/../../../../riscv64-unknown-elf/lib/rv32imf/ilp32f/libc.a(lib_a-strlen.o)
 .data          0x0000000000000000        0x0 /home/jins/bl_iot_sdk/toolchain/riscv/Linux/bin/../lib/gcc/riscv64-unknown-elf/8.3.0/../../../../riscv64-unknown-elf/lib/rv32imf/ilp32f/libc.a(lib_a-strnlen.o)
 .bss           0x0000000000000000        0x0 /home/jins/bl_iot_sdk/toolchain/riscv/Linux/bin/../lib/gcc/riscv64-unknown-elf/8.3.0/../../../../riscv64-unknown-elf/lib/rv32imf/ilp32f/libc.a(lib_a-strnlen.o)

Memory Configuration

Name             Origin             Length             Attributes
rom              0x0000000021015000 0x000000000000b000 axrl !w
flash            0x0000000023000000 0x0000000000400000 axrl !w
ram_tcm          0x000000004200c000 0x0000000000036000 axw
ram_wifi         0x0000000042042000 0x000000000000a000 axw
*default*        0x0000000000000000 0xffffffffffffffff

Linker script and memory map

START GROUP
LOAD /home/jins/bl_iot_sdk/customer_app/tt_app_temperature/build_out/bl602/libbl602.a
LOAD /home/jins/bl_iot_sdk/customer_app/tt_app_temperature/build_out/bl602_std/libbl602_std.a
LOAD /home/jins/bl_iot_sdk/customer_app/tt_app_temperature/build_out/blfdt/libblfdt.a
LOAD /home/jins/bl_iot_sdk/customer_app/tt_app_temperature/build_out/blmtd/libblmtd.a
LOAD /home/jins/bl_iot_sdk/customer_app/tt_app_temperature/build_out/blog/libblog.a
LOAD /home/jins/bl_iot_sdk/customer_app/tt_app_temperature/build_out/blog_testc/libblog_testc.a
LOAD /home/jins/bl_iot_sdk/customer_app/tt_app_temperature/build_out/bloop/libbloop.a
LOAD /home/jins/bl_iot_sdk/customer_app/tt_app_temperature/build_out/bltime/libbltime.a
LOAD /home/jins/bl_iot_sdk/customer_app/tt_app_temperature/build_out/cli/libcli.a
LOAD /home/jins/bl_iot_sdk/customer_app/tt_app_temperature/build_out/freertos_riscv_ram/libfreertos_riscv_ram.a
LOAD /home/jins/bl_iot_sdk/customer_app/tt_app_temperature/build_out/hal_drv/libhal_drv.a
LOAD /home/jins/bl_iot_sdk/customer_app/tt_app_temperature/build_out/looprt/liblooprt.a
LOAD /home/jins/bl_iot_sdk/customer_app/tt_app_temperature/build_out/loopset/libloopset.a
LOAD /home/jins/bl_iot_sdk/customer_app/tt_app_temperature/build_out/romfs/libromfs.a
LOAD /home/jins/bl_iot_sdk/customer_app/tt_app_temperature/build_out/tt_app_temperature/libtt_app_temperature.a
LOAD /home/jins/bl_iot_sdk/customer_app/tt_app_temperature/build_out/utils/libutils.a
LOAD /home/jins/bl_iot_sdk/customer_app/tt_app_temperature/build_out/vfs/libvfs.a
LOAD /home/jins/bl_iot_sdk/customer_app/tt_app_temperature/build_out/yloop/libyloop.a
END GROUP
LOAD /home/jins/bl_iot_sdk/toolchain/riscv/Linux/bin/../lib/gcc/riscv64-unknown-elf/8.3.0/../../../../riscv64-unknown-elf/lib/rv32imf/ilp32f/libm.a
LOAD /home/jins/bl_iot_sdk/toolchain/riscv/Linux/bin/../lib/gcc/riscv64-unknown-elf/8.3.0/rv32imf/ilp32f/libgcc.a
START GROUP
LOAD /home/jins/bl_iot_sdk/toolchain/riscv/Linux/bin/../lib/gcc/riscv64-unknown-elf/8.3.0/../../../../riscv64-unknown-elf/lib/rv32imf/ilp32f/libc.a
LOAD /home/jins/bl_iot_sdk/toolchain/riscv/Linux/bin/../lib/gcc/riscv64-unknown-elf/8.3.0/../../../../riscv64-unknown-elf/lib/rv32imf/ilp32f/libgloss.a
END GROUP
LOAD /home/jins/bl_iot_sdk/toolchain/riscv/Linux/bin/../lib/gcc/riscv64-unknown-elf/8.3.0/rv32imf/ilp32f/libgcc.a
                0x0000000000000000                __EM_SIZE = DEFINED (ble_controller_init)?0x2000:0x0
                0x0000000000000800                __stack_size = DEFINED (__stack_size)?__stack_size:0x800
                0x0000000042049c00                BOOT2_PT_ADDR = 0x42049c00
                0x0000000042049c18                BOOT2_FLASHCFG_ADDR = 0x42049c18

.init           0x0000000023000000      0x282
 *(SORT_NONE(.init))
 .init          0x0000000023000000      0x11c /home/jins/bl_iot_sdk/customer_app/tt_app_temperature/build_out/bl602/libbl602.a(start.o)
                0x0000000023000000                bl602_start
 *fill*         0x000000002300011c       0x24 
 .init          0x0000000023000140      0x142 /home/jins/bl_iot_sdk/customer_app/tt_app_temperature/build_out/bl602_std/libbl602_std.a(interrupt.o)
                0x0000000023000140                __Vectors

.text           0x0000000023000284     0x4c00
 *(.text.unlikely .text.unlikely.*)
 *(.text.startup .text.startup.*)
 *(.text .text.*)
 .text.hal_boot2_get_flash_addr
                0x0000000023000284       0x18 /home/jins/bl_iot_sdk/customer_app/tt_app_temperature/build_out/hal_drv/libhal_drv.a(hal_boot2.o)
                0x0000000023000284                hal_boot2_get_flash_addr
 .text.init_gpio_system
                0x000000002300029c        0xa /home/jins/bl_iot_sdk/customer_app/tt_app_temperature/build_out/tt_app_temperature/libtt_app_temperature.a(main.o)
                0x000000002300029c                init_gpio_system
 .text.read_dht22_data
                0x00000000230002a6       0xda /home/jins/bl_iot_sdk/customer_app/tt_app_temperature/build_out/tt_app_temperature/libtt_app_temperature.a(main.o)
                0x00000000230002a6                read_dht22_data
 .text.bfl_main
                0x0000000023000380       0x30 /home/jins/bl_iot_sdk/customer_app/tt_app_temperature/build_out/tt_app_temperature/libtt_app_temperature.a(main.o)
                0x0000000023000380                bfl_main
 .text.format_int
                0x00000000230003b0      0x25a /home/jins/bl_iot_sdk/customer_app/tt_app_temperature/build_out/bl602/libbl602.a(debug.o)
 .text.cvt      0x000000002300060a      0x23a /home/jins/bl_iot_sdk/customer_app/tt_app_temperature/build_out/bl602/libbl602.a(debug.o)
 .text.ecvtbuf  0x0000000023000844        0x4 /home/jins/bl_iot_sdk/customer_app/tt_app_temperature/build_out/bl602/libbl602.a(debug.o)
                0x0000000023000844                ecvtbuf
 .text.fcvtbuf  0x0000000023000848        0x4 /home/jins/bl_iot_sdk/customer_app/tt_app_temperature/build_out/bl602/libbl602.a(debug.o)
                0x0000000023000848                fcvtbuf
 .text.flt      0x000000002300084c      0x436 /home/jins/bl_iot_sdk/customer_app/tt_app_temperature/build_out/bl602/libbl602.a(debug.o)
 .text.vsnprintf
                0x0000000023000c82      0x4d2 /home/jins/bl_iot_sdk/customer_app/tt_app_temperature/build_out/bl602/libbl602.a(debug.o)
                0x0000000023000c82                vsnprintf
 .text.vsprintf
                0x0000000023001154        0xa /home/jins/bl_iot_sdk/customer_app/tt_app_temperature/build_out/bl602/libbl602.a(debug.o)
                0x0000000023001154                vsprintf
 .text.vprint   0x000000002300115e       0x3a /home/jins/bl_iot_sdk/customer_app/tt_app_temperature/build_out/bl602/libbl602.a(debug.o)
                0x000000002300115e                vprint
 .text.printf   0x0000000023001198       0x2a /home/jins/bl_iot_sdk/customer_app/tt_app_temperature/build_out/bl602/libbl602.a(debug.o)
                0x0000000023001198                printf
 .text.Default_Handler
                0x00000000230011c2        0xa /home/jins/bl_iot_sdk/customer_app/tt_app_temperature/build_out/bl602_std/libbl602_std.a(bl602_common.o)
                0x00000000230011c2                Default_Handler
 .text.bflb_platform_usart_dbg_send
                0x00000000230011cc        0x8 /home/jins/bl_iot_sdk/customer_app/tt_app_temperature/build_out/bl602_std/libbl602_std.a(platform_device.o)
                0x00000000230011cc                bflb_platform_usart_dbg_send
 .text.bflb_platform_printf
                0x00000000230011d4       0x42 /home/jins/bl_iot_sdk/customer_app/tt_app_temperature/build_out/bl602_std/libbl602_std.a(platform_device.o)
                0x00000000230011d4                bflb_platform_printf
 .text.Default_Handler_Stub
                0x0000000023001216       0x9a /home/jins/bl_iot_sdk/customer_app/tt_app_temperature/build_out/bl602_std/libbl602_std.a(interrupt.o)
                0x0000000023001216                HBN_OUT0_IRQHandler
                0x0000000023001216                L1C_BMX_TO_IRQHandler
                0x0000000023001216                IRTX_IRQHandler
                0x0000000023001216                TIMER_CH0_IRQHandler
                0x0000000023001216                SDIO_IRQHandler
                0x0000000023001216                WIFI_IPC_PUBLIC_IRQHandler
                0x0000000023001216                DMA_BMX_ERR_IRQHandler
                0x0000000023001216                MAC_RX_TRG_IRQHandler
                0x0000000023001216                EFUSE_IRQHandler
                0x0000000023001216                TIMER_WDT_IRQHandler
                0x0000000023001216                MAC_TXRX_TIMER_IRQHandler
                0x0000000023001216                MAC_GEN_IRQHandler
                0x0000000023001216                clic_csoft_handler
                0x0000000023001216                BOR_IRQHandler
                0x0000000023001216                MAC_PORT_TRG_IRQHandler
                0x0000000023001216                SPI_IRQHandler
                0x0000000023001216                HBN_OUT1_IRQHandler
                0x0000000023001216                SEC_BMX_ERR_IRQHandler
                0x0000000023001216                SF_CTRL_IRQHandler
                0x0000000023001216                RF_TOP_INT0_IRQHandler
                0x0000000023001216                MAC_TXRX_MISC_IRQHandler
                0x0000000023001216                BZ_PHY_IRQHandler
                0x0000000023001216                DMA_ALL_IRQHandler
                0x0000000023001216                SEC_GMAC_IRQHandler
                0x0000000023001216                BMX_ERR_IRQHandler
                0x0000000023001216                SEC_PKA_IRQHandler
                0x0000000023001216                TIMER_CH1_IRQHandler
                0x0000000023001216                clic_msip_handler
                0x0000000023001216                I2C_IRQHandler
                0x0000000023001216                SEC_TRNG_IRQHandler
                0x0000000023001216                GPIO_INT0_IRQHandler
                0x0000000023001216                IRRX_IRQHandler
                0x0000000023001216                L1C_BMX_ERR_IRQHandler
                0x0000000023001216                BMX_TO_IRQHandler
                0x0000000023001216                SEC_CDET_IRQHandler
                0x0000000023001216                WIFI_IRQHandler
                0x0000000023001216                clic_mtimer_handler
                0x0000000023001216                PDS_WAKEUP_IRQHandler
                0x0000000023001216                GPADC_DMA_IRQHandler
                0x0000000023001216                BLE_IRQHandler
                0x0000000023001216                PWM_IRQHandler
                0x0000000023001216                MAC_TX_TRG_IRQHandler
                0x0000000023001216                clic_mext_handler
                0x0000000023001216                RF_TOP_INT1_IRQHandler
                0x0000000023001216                SEC_AES_IRQHandler
                0x0000000023001216                SEC_SHA_IRQHandler
                0x0000000023001216                Default_Handler_Stub
 .text.UART_Init
                0x00000000230012b0       0xf4 /home/jins/bl_iot_sdk/customer_app/tt_app_temperature/build_out/bl602_std/libbl602_std.a(bl602_uart.o)
                0x00000000230012b0                UART_Init
 .text.UART_FifoConfig
                0x00000000230013a4       0x6a /home/jins/bl_iot_sdk/customer_app/tt_app_temperature/build_out/bl602_std/libbl602_std.a(bl602_uart.o)
                0x00000000230013a4                UART_FifoConfig
 .text.UART_Enable
                0x000000002300140e       0x34 /home/jins/bl_iot_sdk/customer_app/tt_app_temperature/build_out/bl602_std/libbl602_std.a(bl602_uart.o)
                0x000000002300140e                UART_Enable
 .text.UART_Disable
                0x0000000023001442       0x30 /home/jins/bl_iot_sdk/customer_app/tt_app_temperature/build_out/bl602_std/libbl602_std.a(bl602_uart.o)
                0x0000000023001442                UART_Disable
 .text.UART_TxFreeRun
                0x0000000023001472       0x24 /home/jins/bl_iot_sdk/customer_app/tt_app_temperature/build_out/bl602_std/libbl602_std.a(bl602_uart.o)
                0x0000000023001472                UART_TxFreeRun
 .text.UART_IntMask
                0x0000000023001496       0x3e /home/jins/bl_iot_sdk/customer_app/tt_app_temperature/build_out/bl602_std/libbl602_std.a(bl602_uart.o)
                0x0000000023001496                UART_IntMask
 .text.UART_GetTxFifoCount
                0x00000000230014d4       0x18 /home/jins/bl_iot_sdk/customer_app/tt_app_temperature/build_out/bl602_std/libbl602_std.a(bl602_uart.o)
                0x00000000230014d4                UART_GetTxFifoCount
 .text.UART_SendData
                0x00000000230014ec       0x70 /home/jins/bl_iot_sdk/customer_app/tt_app_temperature/build_out/bl602_std/libbl602_std.a(bl602_uart.o)
                0x00000000230014ec                UART_SendData
 .text.GLB_Set_UART_CLK
                0x000000002300155c       0x3e /home/jins/bl_iot_sdk/customer_app/tt_app_temperature/build_out/bl602_std/libbl602_std.a(bl602_glb.o)
                0x000000002300155c                GLB_Set_UART_CLK
 .text.GLB_UART_Fun_Sel
                0x000000002300159a       0x24 /home/jins/bl_iot_sdk/customer_app/tt_app_temperature/build_out/bl602_std/libbl602_std.a(bl602_glb.o)
                0x000000002300159a                GLB_UART_Fun_Sel
 .text.GLB_GPIO_Write
                0x00000000230015be       0x2a /home/jins/bl_iot_sdk/customer_app/tt_app_temperature/build_out/bl602_std/libbl602_std.a(bl602_glb.o)
                0x00000000230015be                GLB_GPIO_Write
 .text.GLB_GPIO_Read
                0x00000000230015e8       0x20 /home/jins/bl_iot_sdk/customer_app/tt_app_temperature/build_out/bl602_std/libbl602_std.a(bl602_glb.o)
                0x00000000230015e8                GLB_GPIO_Read
 .text.HBN_Set_UART_CLK_Sel
                0x0000000023001608       0x12 /home/jins/bl_iot_sdk/customer_app/tt_app_temperature/build_out/bl602_std/libbl602_std.a(bl602_hbn.o)
                0x0000000023001608                HBN_Set_UART_CLK_Sel
 .text.uart_generic_notify_handler
                0x000000002300161a       0xe2 /home/jins/bl_iot_sdk/customer_app/tt_app_temperature/build_out/hal_drv/libhal_drv.a(bl_uart.o)
 .text.UART0_IRQHandler
                0x00000000230016fc        0x4 /home/jins/bl_iot_sdk/customer_app/tt_app_temperature/build_out/hal_drv/libhal_drv.a(bl_uart.o)
                0x00000000230016fc                UART0_IRQHandler
 .text.UART1_IRQHandler
                0x0000000023001700        0x4 /home/jins/bl_iot_sdk/customer_app/tt_app_temperature/build_out/hal_drv/libhal_drv.a(bl_uart.o)
                0x0000000023001700                UART1_IRQHandler
 .text.bl_uart_init
                0x0000000023001704       0xd6 /home/jins/bl_iot_sdk/customer_app/tt_app_temperature/build_out/hal_drv/libhal_drv.a(bl_uart.o)
                0x0000000023001704                bl_uart_init
 .text.bl_uart_data_send
                0x00000000230017da       0x34 /home/jins/bl_iot_sdk/customer_app/tt_app_temperature/build_out/hal_drv/libhal_drv.a(bl_uart.o)
                0x00000000230017da                bl_uart_data_send
 .text.bl_gpio_enable_output
                0x000000002300180e       0x44 /home/jins/bl_iot_sdk/customer_app/tt_app_temperature/build_out/hal_drv/libhal_drv.a(bl_gpio.o)
                0x000000002300180e                bl_gpio_enable_output
 .text.bl_gpio_enable_input
                0x0000000023001852       0x42 /home/jins/bl_iot_sdk/customer_app/tt_app_temperature/build_out/hal_drv/libhal_drv.a(bl_gpio.o)
                0x0000000023001852                bl_gpio_enable_input
 .text.bl_gpio_output_set
                0x0000000023001894       0x12 /home/jins/bl_iot_sdk/customer_app/tt_app_temperature/build_out/hal_drv/libhal_drv.a(bl_gpio.o)
                0x0000000023001894                bl_gpio_output_set
 .text.bl_gpio_input_get_value
                0x00000000230018a6        0x2 /home/jins/bl_iot_sdk/customer_app/tt_app_temperature/build_out/hal_drv/libhal_drv.a(bl_gpio.o)
                0x00000000230018a6                bl_gpio_input_get_value
 .text          0x00000000230018a8       0xf4 /home/jins/bl_iot_sdk/toolchain/riscv/Linux/bin/../lib/gcc/riscv64-unknown-elf/8.3.0/../../../../riscv64-unknown-elf/lib/rv32imf/ilp32f/libm.a(lib_a-s_modf.o)
                0x00000000230018a8                modf
 .text          0x000000002300199c       0x4c /home/jins/bl_iot_sdk/toolchain/riscv/Linux/bin/../lib/gcc/riscv64-unknown-elf/8.3.0/rv32imf/ilp32f/libgcc.a(_clzsi2.o)
                0x000000002300199c                __clzsi2
 .text          0x00000000230019e8      0x434 /home/jins/bl_iot_sdk/toolchain/riscv/Linux/bin/../lib/gcc/riscv64-unknown-elf/8.3.0/rv32imf/ilp32f/libgcc.a(_udivdi3.o)
                0x00000000230019e8                __udivdi3
 .text          0x0000000023001e1c      0x410 /home/jins/bl_iot_sdk/toolchain/riscv/Linux/bin/../lib/gcc/riscv64-unknown-elf/8.3.0/rv32imf/ilp32f/libgcc.a(_umoddi3.o)
                0x0000000023001e1c                __umoddi3
 .text          0x000000002300222c      0xb50 /home/jins/bl_iot_sdk/toolchain/riscv/Linux/bin/../lib/gcc/riscv64-unknown-elf/8.3.0/rv32imf/ilp32f/libgcc.a(adddf3.o)
                0x000000002300222c                __adddf3
 .text          0x0000000023002d7c      0x8ac /home/jins/bl_iot_sdk/toolchain/riscv/Linux/bin/../lib/gcc/riscv64-unknown-elf/8.3.0/rv32imf/ilp32f/libgcc.a(divdf3.o)
                0x0000000023002d7c                __divdf3
 .text          0x0000000023003628       0xc8 /home/jins/bl_iot_sdk/toolchain/riscv/Linux/bin/../lib/gcc/riscv64-unknown-elf/8.3.0/rv32imf/ilp32f/libgcc.a(eqdf2.o)
                0x0000000023003628                __eqdf2
                0x0000000023003628                __nedf2
 .text          0x00000000230036f0       0xec /home/jins/bl_iot_sdk/toolchain/riscv/Linux/bin/../lib/gcc/riscv64-unknown-elf/8.3.0/rv32imf/ilp32f/libgcc.a(gedf2.o)
                0x00000000230036f0                __gtdf2
                0x00000000230036f0                __gedf2
 .text          0x00000000230037dc       0xec /home/jins/bl_iot_sdk/toolchain/riscv/Linux/bin/../lib/gcc/riscv64-unknown-elf/8.3.0/rv32imf/ilp32f/libgcc.a(ledf2.o)
                0x00000000230037dc                __ltdf2
                0x00000000230037dc                __ledf2
 .text          0x00000000230038c8      0x79c /home/jins/bl_iot_sdk/toolchain/riscv/Linux/bin/../lib/gcc/riscv64-unknown-elf/8.3.0/rv32imf/ilp32f/libgcc.a(muldf3.o)
                0x00000000230038c8                __muldf3
 .text          0x0000000023004064      0xb38 /home/jins/bl_iot_sdk/toolchain/riscv/Linux/bin/../lib/gcc/riscv64-unknown-elf/8.3.0/rv32imf/ilp32f/libgcc.a(subdf3.o)
                0x0000000023004064                __subdf3
 .text          0x0000000023004b9c       0xfc /home/jins/bl_iot_sdk/toolchain/riscv/Linux/bin/../lib/gcc/riscv64-unknown-elf/8.3.0/rv32imf/ilp32f/libgcc.a(fixdfsi.o)
                0x0000000023004b9c                __fixdfsi
 .text          0x0000000023004c98      0x11c /home/jins/bl_iot_sdk/toolchain/riscv/Linux/bin/../lib/gcc/riscv64-unknown-elf/8.3.0/../../../../riscv64-unknown-elf/lib/rv32imf/ilp32f/libc.a(lib_a-memcpy.o)
                0x0000000023004c98                memcpy
 .text          0x0000000023004db4       0x8c /home/jins/bl_iot_sdk/toolchain/riscv/Linux/bin/../lib/gcc/riscv64-unknown-elf/8.3.0/../../../../riscv64-unknown-elf/lib/rv32imf/ilp32f/libc.a(lib_a-strlen.o)
                0x0000000023004db4                strlen
 .text          0x0000000023004e40       0x44 /home/jins/bl_iot_sdk/toolchain/riscv/Linux/bin/../lib/gcc/riscv64-unknown-elf/8.3.0/../../../../riscv64-unknown-elf/lib/rv32imf/ilp32f/libc.a(lib_a-strnlen.o)
                0x0000000023004e40                strnlen
 *(.gnu.linkonce.t.*)

.rodata         0x0000000023004e88      0x414
 *(.rdata)
 *(.rodata .rodata.*)
 .rodata.read_dht22_data.str1.4
                0x0000000023004e88       0x17 /home/jins/bl_iot_sdk/customer_app/tt_app_temperature/build_out/tt_app_temperature/libtt_app_temperature.a(main.o)
 *fill*         0x0000000023004e9f        0x1 
 .rodata.vsnprintf
                0x0000000023004ea0      0x1f4 /home/jins/bl_iot_sdk/customer_app/tt_app_temperature/build_out/bl602/libbl602.a(debug.o)
 *fill*         0x0000000023005094        0x4 
 .rodata.cvt.cst8
                0x0000000023005098       0x18 /home/jins/bl_iot_sdk/customer_app/tt_app_temperature/build_out/bl602/libbl602.a(debug.o)
 .rodata.lcdigits.2256
                0x00000000230050b0       0x11 /home/jins/bl_iot_sdk/customer_app/tt_app_temperature/build_out/bl602/libbl602.a(debug.o)
 *fill*         0x00000000230050c1        0x3 
 .rodata.ucdigits.2257
                0x00000000230050c4       0x11 /home/jins/bl_iot_sdk/customer_app/tt_app_temperature/build_out/bl602/libbl602.a(debug.o)
 *fill*         0x00000000230050d5        0x3 
 .rodata.vsnprintf.str1.4
                0x00000000230050d8        0x7 /home/jins/bl_iot_sdk/customer_app/tt_app_temperature/build_out/bl602/libbl602.a(debug.o)
 *fill*         0x00000000230050df        0x1 
 .rodata.Default_Handler.str1.4
                0x00000000230050e0       0x14 /home/jins/bl_iot_sdk/customer_app/tt_app_temperature/build_out/bl602_std/libbl602_std.a(bl602_common.o)
                                         0x12 (size before relaxing)
 .rodata        0x00000000230050f4       0x20 /home/jins/bl_iot_sdk/customer_app/tt_app_temperature/build_out/hal_drv/libhal_drv.a(bl_uart.o)
 .rodata        0x0000000023005114       0x3c /home/jins/bl_iot_sdk/toolchain/riscv/Linux/bin/../lib/gcc/riscv64-unknown-elf/8.3.0/rv32imf/ilp32f/libgcc.a(divdf3.o)
 .rodata        0x0000000023005150       0x3c /home/jins/bl_iot_sdk/toolchain/riscv/Linux/bin/../lib/gcc/riscv64-unknown-elf/8.3.0/rv32imf/ilp32f/libgcc.a(muldf3.o)
 .rodata        0x000000002300518c      0x100 /home/jins/bl_iot_sdk/toolchain/riscv/Linux/bin/../lib/gcc/riscv64-unknown-elf/8.3.0/rv32imf/ilp32f/libgcc.a(_clz.o)
                0x000000002300518c                __clz_tab
 *(.sdata2.*)
 .sdata2.uartAddr
                0x000000002300528c        0x8 /home/jins/bl_iot_sdk/customer_app/tt_app_temperature/build_out/bl602_std/libbl602_std.a(bl602_uart.o)
 .sdata2.uartAddr
                0x0000000023005294        0x8 /home/jins/bl_iot_sdk/customer_app/tt_app_temperature/build_out/hal_drv/libhal_drv.a(bl_uart.o)
                0x000000002300529c                . = ALIGN (0x4)
                0x000000002300529c                _bl_static_cli_cmds_start = .
 *(.static_cli_cmds)
 *(.static_cli_cmds)
                0x000000002300529c                _bl_static_cli_cmds_end = .
                0x000000002300529c                . = ALIGN (0x4)
                0x000000002300529c                _bl_static_fw_cfg_entry_start = .
 *(.wifi.cfg.entry)
                0x000000002300529c                _bl_static_fw_cfg_entry_end = .
                0x000000002300529c                . = ALIGN (0x4)
                0x000000002300529c                _bl_static_blogcomponent_code_start = .
 SORT_BY_NAME(*)(.static_blogcomponent_code*)
 *(.static_blogcomponent_code*)
                0x000000002300529c                _bl_static_blogcomponent_code_end = .
                0x000000002300529c                . = ALIGN (0x4)
                0x000000002300529c                _bl_static_blogfile_code_start = .
 SORT_BY_NAME(*)(.static_blogfile_code*)
 *(.static_blogfile_code*)
                0x000000002300529c                _bl_static_blogfile_code_end = .
                0x000000002300529c                . = ALIGN (0x4)
                0x000000002300529c                _bl_static_blogpri_code_start = .
 SORT_BY_NAME(*)(.static_blogpri_code*)
 *(.static_blogpri_code*)
                0x000000002300529c                _bl_static_blogpri_code_end = .
 *(.gnu.linkonce.r.*)
                0x000000002300529c                . = ALIGN (0x4)
                0x000000002300529c                _rom_framework_audio_device_start = .
 *(.framework.audio_device)
                0x000000002300529c                _rom_framework_audio_device_end = .

.rela.dyn       0x000000002300529c        0x0
 .rela.init     0x000000002300529c        0x0 /home/jins/bl_iot_sdk/customer_app/tt_app_temperature/build_out/bl602/libbl602.a(start.o)
 .rela.text.hal_boot2_get_flash_addr
                0x000000002300529c        0x0 /home/jins/bl_iot_sdk/customer_app/tt_app_temperature/build_out/bl602/libbl602.a(start.o)

.preinit_array  0x000000002300529c        0x0
                0x000000002300529c                . = ALIGN (0x4)
                0x000000002300529c                __preinit_array_start = .
 *(.preinit_array)
                0x000000002300529c                __preinit_array_end = .

.init_array     0x000000002300529c        0x0
                0x000000002300529c                . = ALIGN (0x4)
                0x000000002300529c                __init_array_start = .
 *(SORT_BY_INIT_PRIORITY(.init_array.*))
 *(.init_array)
                0x000000002300529c                __init_array_end = .

.wifibss        0x0000000042042000        0x0
                0x0000000042042000                PROVIDE (__wifi_bss_start = ADDR (.wifibss))
                0x0000000042042000                PROVIDE (__wifi_bss_end = (ADDR (.wifibss) + SIZEOF (.wifibss)))
 *ipc_shared.o(COMMON)
 *sdu_shared.o(COMMON)
 *hal_desc.o(COMMON)
 *txl_buffer_shared.o(COMMON)
 *txl_frame_shared.o(COMMON)
 *scan_shared.o(COMMON)
 *scanu_shared.o(COMMON)
 *mfp_bip.o(COMMON)
 *me_mic.o(COMMON)
 *bl_sta_mgmt_others.o(COMMON)
 *bl_pmk_mgmt.o(COMMON)
 *bl_pmk_mgmt_internal.o(COMMON)
 *libwifi_drv.a:bl_utils.o(COMMON)
 *libwifi_drv.a:bl_utils.o(.bss*)
 *(.wifi_ram*)
                0x0000000042042000                . = ALIGN (0x10)
                [!provide]                        PROVIDE (_heap_wifi_start = .)
                [!provide]                        PROVIDE (_heap_wifi_size = ((ORIGIN (ram_wifi) + LENGTH (ram_wifi)) - _heap_wifi_start))

.romdata        0x000000004200c000      0x498 load address 0x000000002300529c
                [!provide]                        PROVIDE (__global_pointer_head$ = .)
                0x000000004200c7f0                PROVIDE (__global_pointer$ = (. + 0x7f0))
                0x000000004200c498                . = (. + 0x498)
 *fill*         0x000000004200c000      0x498 

.data           0x000000004200c498      0x560 load address 0x000000002300529c
                0x000000002300529c                PROVIDE (_data_load = LOADADDR (.data))
                0x000000004200c498                PROVIDE (_data_run = ADDR (.data))
                0x000000004200c9f8                PROVIDE (_data_run_end = (ADDR (.data) + SIZEOF (.data)))
 *(.tcm_code)
 .tcm_code      0x000000004200c498      0x550 /home/jins/bl_iot_sdk/customer_app/tt_app_temperature/build_out/bl602_std/libbl602_std.a(bl602_romapi.o)
                0x000000004200c498                AON_Power_On_BG
                0x000000004200c4a2                AON_Power_Off_BG
                0x000000004200c4ac                AON_Power_On_LDO11_SOC
                0x000000004200c4b6                AON_Power_Off_LDO11_SOC
                0x000000004200c4c0                AON_Power_On_LDO15_RF
                0x000000004200c4ca                AON_Power_Off_LDO15_RF
                0x000000004200c4d4                AON_Power_On_SFReg
                0x000000004200c4de                AON_Power_Off_SFReg
                0x000000004200c4e8                AON_LowPower_Enter_PDS0
                0x000000004200c4f2                AON_LowPower_Exit_PDS0
                0x000000004200c4fc                ASM_Delay_Us
                0x000000004200c506                BL602_Delay_US
                0x000000004200c510                BL602_Delay_MS
                0x000000004200c51a                BL602_MemCpy
                0x000000004200c524                BL602_MemCpy4
                0x000000004200c52e                BL602_MemCpy_Fast
                0x000000004200c538                BL602_MemSet
                0x000000004200c542                BL602_MemSet4
                0x000000004200c54c                BL602_MemCmp
                0x000000004200c556                EF_Ctrl_Sw_AHB_Clk_0
                0x000000004200c560                EF_Ctrl_Program_Efuse_0
                0x000000004200c56a                EF_Ctrl_Load_Efuse_R0
                0x000000004200c574                EF_Ctrl_Busy
                0x000000004200c57e                EF_Ctrl_AutoLoad_Done
                0x000000004200c588                EF_Ctrl_Clear
                0x000000004200c592                GLB_SW_System_Reset
                0x000000004200c59c                GLB_SW_CPU_Reset
                0x000000004200c5a6                GLB_SW_POR_Reset
                0x000000004200c5b0                GLB_Select_Internal_Flash
                0x000000004200c5ba                GLB_Select_External_Flash
                0x000000004200c5c4                GLB_Deswap_Flash_Pin
                0x000000004200c5ce                GLB_Swap_Flash_Pin
                0x000000004200c5d8                GLB_GPIO_Init
                0x000000004200c5e2                GLB_GPIO_OUTPUT_Enable
                0x000000004200c5ec                GLB_GPIO_OUTPUT_Disable
                0x000000004200c5f6                GLB_GPIO_Set_HZ
                0x000000004200c600                GLB_GPIO_Get_Fun
                0x000000004200c60a                HBN_Mode_Enter
                0x000000004200c614                HBN_Power_Down_Flash
                0x000000004200c61e                HBN_Enable
                0x000000004200c628                HBN_Reset
                0x000000004200c632                HBN_Set_Ldo11_Aon_Vout
                0x000000004200c63c                HBN_Set_Ldo11_Rt_Vout
                0x000000004200c646                HBN_Set_Ldo11_Soc_Vout
                0x000000004200c650                HBN_Hw_Pu_Pd_Cfg
                0x000000004200c65a                HBN_Pin_WakeUp_Mask
                0x000000004200c664                HBN_GPIO7_Dbg_Pull_Cfg
                0x000000004200c66e                HBN_Set_Embedded_Flash_Pullup
                0x000000004200c678                L1C_Set_Wrap
                0x000000004200c682                L1C_Set_Way_Disable
                0x000000004200c68c                L1C_IROM_2T_Access_Set
                0x000000004200c696                PDS_Reset
                0x000000004200c6a0                PDS_Force_Config
                0x000000004200c6aa                PDS_RAM_Config
                0x000000004200c6b4                PDS_Default_Level_Config
                0x000000004200c6be                SEC_Eng_Turn_On_Sec_Ring
                0x000000004200c6c8                SEC_Eng_Turn_Off_Sec_Ring
                0x000000004200c6d2                SFlash_Init
                0x000000004200c6dc                SFlash_SetSPIMode
                0x000000004200c6e6                SFlash_Read_Reg
                0x000000004200c6f0                SFlash_Write_Reg
                0x000000004200c6fa                SFlash_Busy
                0x000000004200c704                SFlash_Write_Enable
                0x000000004200c70e                SFlash_Qspi_Enable
                0x000000004200c718                SFlash_Volatile_Reg_Write_Enable
                0x000000004200c722                SFlash_Chip_Erase
                0x000000004200c72c                SFlash_Sector_Erase
                0x000000004200c736                SFlash_Blk32_Erase
                0x000000004200c740                SFlash_Blk64_Erase
                0x000000004200c74a                SFlash_Erase
                0x000000004200c754                SFlash_Program
                0x000000004200c75e                SFlash_GetUniqueId
                0x000000004200c768                SFlash_GetJedecId
                0x000000004200c772                SFlash_GetDeviceId
                0x000000004200c77c                SFlash_Powerdown
                0x000000004200c786                SFlash_Releae_Powerdown
                0x000000004200c790                SFlash_SetBurstWrap
                0x000000004200c79a                SFlash_DisableBurstWrap
                0x000000004200c7a4                SFlash_Software_Reset
                0x000000004200c7ae                SFlash_Reset_Continue_Read
                0x000000004200c7b8                SFlash_Set_IDbus_Cfg
                0x000000004200c7c2                SFlash_IDbus_Read_Enable
                0x000000004200c7cc                SFlash_Cache_Enable_Set
                0x000000004200c7d6                SFlash_Cache_Flush
                0x000000004200c7e0                SFlash_Cache_Read_Enable
                0x000000004200c7ea                SFlash_Cache_Hit_Count_Get
                0x000000004200c7f4                SFlash_Cache_Miss_Count_Get
                0x000000004200c7fe                SFlash_Cache_Read_Disable
                0x000000004200c808                SFlash_Read
                0x000000004200c812                SFlash_Read_Reg_With_Cmd
                0x000000004200c81c                SFlash_Write_Reg_With_Cmd
                0x000000004200c826                SF_Cfg_Init_Ext_Flash_Gpio
                0x000000004200c830                SF_Cfg_Init_Internal_Flash_Gpio
                0x000000004200c83a                SF_Cfg_Deinit_Ext_Flash_Gpio
                0x000000004200c844                SF_Cfg_Restore_GPIO17_Fun
                0x000000004200c84e                SF_Cfg_Get_Flash_Cfg_Need_Lock
                0x000000004200c858                SF_Cfg_Init_Flash_Gpio
                0x000000004200c862                SF_Cfg_Flash_Identify
                0x000000004200c86c                SF_Ctrl_Enable
                0x000000004200c876                SF_Ctrl_Select_Pad
                0x000000004200c880                SF_Ctrl_Set_Owner
                0x000000004200c88a                SF_Ctrl_Disable
                0x000000004200c894                SF_Ctrl_AES_Enable_BE
                0x000000004200c89e                SF_Ctrl_AES_Enable_LE
                0x000000004200c8a8                SF_Ctrl_AES_Set_Region
                0x000000004200c8b2                SF_Ctrl_AES_Set_Key
                0x000000004200c8bc                SF_Ctrl_AES_Set_Key_BE
                0x000000004200c8c6                SF_Ctrl_AES_Set_IV
                0x000000004200c8d0                SF_Ctrl_AES_Set_IV_BE
                0x000000004200c8da                SF_Ctrl_AES_Enable
                0x000000004200c8e4                SF_Ctrl_AES_Disable
                0x000000004200c8ee                SF_Ctrl_Set_Flash_Image_Offset
                0x000000004200c8f8                SF_Ctrl_Get_Flash_Image_Offset
                0x000000004200c902                SF_Ctrl_Select_Clock
                0x000000004200c90c                SF_Ctrl_SendCmd
                0x000000004200c916                SF_Ctrl_Icache_Set
                0x000000004200c920                SF_Ctrl_Icache2_Set
                0x000000004200c92a                SF_Ctrl_GetBusyState
                0x000000004200c934                SF_Ctrl_Is_AES_Enable
                0x000000004200c93e                SF_Ctrl_Get_Clock_Delay
                0x000000004200c948                SF_Ctrl_Set_Clock_Delay
                0x000000004200c952                XIP_SFlash_State_Save
                0x000000004200c95c                XIP_SFlash_State_Restore
                0x000000004200c966                XIP_SFlash_Erase_Need_Lock
                0x000000004200c970                XIP_SFlash_Write_Need_Lock
                0x000000004200c97a                XIP_SFlash_Read_Need_Lock
                0x000000004200c984                XIP_SFlash_GetJedecId_Need_Lock
                0x000000004200c98e                XIP_SFlash_GetDeviceId_Need_Lock
                0x000000004200c998                XIP_SFlash_GetUniqueId_Need_Lock
                0x000000004200c9a2                XIP_SFlash_Read_Via_Cache_Need_Lock
                0x000000004200c9ac                XIP_SFlash_Read_With_Lock
                0x000000004200c9b6                XIP_SFlash_Write_With_Lock
                0x000000004200c9c0                XIP_SFlash_Erase_With_Lock
                0x000000004200c9ca                XIP_SFlash_Opt_Enter
                0x000000004200c9d4                XIP_SFlash_Opt_Exit
                0x000000004200c9de                BFLB_Soft_CRC32
 *(.tcm_const)
 *(.sclock_rlt_code)
 *(.sclock_rlt_const)
 *(.data .data.*)
 *(.gnu.linkonce.d.*)
 *(.sdata .sdata.*)
 .sdata.sys_log_all_enable
                0x000000004200c9e8        0x1 /home/jins/bl_iot_sdk/customer_app/tt_app_temperature/build_out/hal_drv/libhal_drv.a(bl_sys.o)
                0x000000004200c9e8                sys_log_all_enable
 *(.gnu.linkonce.s.*)
                0x000000004200c9f0                . = ALIGN (0x8)
 *fill*         0x000000004200c9e9        0x7 
 *(.srodata.cst16)
 *(.srodata.cst8)
 *(.srodata.cst4)
 *(.srodata.cst2)
 *(.srodata .srodata.*)
 .srodata       0x000000004200c9f0        0x4 /home/jins/bl_iot_sdk/customer_app/tt_app_temperature/build_out/hal_drv/libhal_drv.a(bl_uart.o)
                0x000000004200c9f8                . = ALIGN (0x8)
 *fill*         0x000000004200c9f4        0x4 
 *(._k_queue.static.*)
 *(._k_sem.static.*)
 *(._k_mutex.static.*)
                0x000000004200c9f8                _net_buf_pool_list = .
 *(SORT_BY_NAME(._net_buf_pool.static.*))
                0x000000004200c9f8                _bt_gatt_service_static_list_start = .
 *(SORT_BY_NAME(._bt_gatt_service_static.static.*))
                0x000000004200c9f8                _bt_gatt_service_static_list_end = .
                0x000000004200c9f8                _bt_l2cap_fixed_chan_list_start = .
 *(SORT_BY_NAME(._bt_l2cap_fixed_chan.static.*))
                0x000000004200c9f8                _bt_l2cap_fixed_chan_list_end = .

.boot2          0x000000004200c9f8      0x258 load address 0x00000000230057fc
                0x000000004200c9f8                PROVIDE (__boot2_pt_addr_start = .)
 *(.bss.boot2_partition_table)
 .bss.boot2_partition_table
                0x000000004200c9f8      0x258 /home/jins/bl_iot_sdk/customer_app/tt_app_temperature/build_out/hal_drv/libhal_drv.a(hal_boot2.o)
                0x000000004200cc50                PROVIDE (__boot2_pt_addr_end = .)
                0x000000004200cc50                PROVIDE (__boot2_flashCfg_start = .)
 *(.bss.boot2_flashCfg)
                0x000000004200cc50                PROVIDE (__boot2_flashCfg_end = .)

.bss            0x000000004200cc50      0x2a4 load address 0x00000000230057fc
                0x000000004200cc50                PROVIDE (__bss_start = ADDR (.bss))
                0x000000004200cef4                PROVIDE (__bss_end = (ADDR (.bss) + SIZEOF (.bss)))
 *(.sbss*)
 .sbss.uart_dbg_disable
                0x000000004200cc50        0x1 /home/jins/bl_iot_sdk/customer_app/tt_app_temperature/build_out/bl602_std/libbl602_std.a(platform_device.o)
 .sbss.uart_clk_init.7788
                0x000000004200cc51        0x1 /home/jins/bl_iot_sdk/customer_app/tt_app_temperature/build_out/hal_drv/libhal_drv.a(bl_uart.o)
 *(.gnu.linkonce.sb.*)
 *(.bss .bss.*)
 *fill*         0x000000004200cc52        0x2 
 .bss.string    0x000000004200cc54      0x200 /home/jins/bl_iot_sdk/customer_app/tt_app_temperature/build_out/bl602/libbl602.a(debug.o)
 .bss.print_buf.9485
                0x000000004200ce54       0x80 /home/jins/bl_iot_sdk/customer_app/tt_app_temperature/build_out/bl602_std/libbl602_std.a(platform_device.o)
 .bss.g_uart_notify_arg
                0x000000004200ced4       0x20 /home/jins/bl_iot_sdk/customer_app/tt_app_temperature/build_out/hal_drv/libhal_drv.a(bl_uart.o)
 *(.gnu.linkonce.b.*)
 *(COMMON)
                [!provide]                        PROVIDE (_heap_start = .)
                [!provide]                        PROVIDE (_heap_size = (ADDR (.stack) - _heap_start))

.stack          0x0000000042041800      0x800
                0x0000000042042000                . = (. + __stack_size)
 *fill*         0x0000000042041800      0x800 
                0x0000000042042000                PROVIDE (_sp_main = .)
                0x0000000042042000                __freertos_irq_stack_top = .
                [!provide]                        PROVIDE (_ld_bl_static_cli_cmds_start = _bl_static_cli_cmds_start)
                [!provide]                        PROVIDE (_ld_bl_static_cli_cmds_end = _bl_static_cli_cmds_end)
                [!provide]                        PROVIDE (_ld_bl_static_cfg_entry_start = _bl_static_fw_cfg_entry_start)
                [!provide]                        PROVIDE (_ld_bl_static_cfg_entry_end = _bl_static_fw_cfg_entry_end)
                [!provide]                        PROVIDE (_ld_bl_static_blogcomponent_code_start = _bl_static_blogcomponent_code_start)
                [!provide]                        PROVIDE (_ld_bl_static_blogcomponent_code_end = _bl_static_blogcomponent_code_end)
                [!provide]                        PROVIDE (_ld_bl_static_blogfile_code_start = _bl_static_blogfile_code_start)
                [!provide]                        PROVIDE (_ld_bl_static_blogfile_code_end = _bl_static_blogfile_code_end)
                [!provide]                        PROVIDE (_ld_bl_static_blogpri_code_start = _bl_static_blogpri_code_start)
                [!provide]                        PROVIDE (_ld_bl_static_blogpri_code_end = _bl_static_blogpri_code_end)
                [!provide]                        PROVIDE (_ld_ram_size0 = LENGTH (flash))
                [!provide]                        PROVIDE (_ld_ram_addr0 = ORIGIN (flash))
                [!provide]                        PROVIDE (_ld_ram_size1 = LENGTH (ram_tcm))
                [!provide]                        PROVIDE (_ld_ram_addr1 = ORIGIN (ram_tcm))
                [!provide]                        PROVIDE (_ld_ram_size2 = LENGTH (ram_wifi))
                [!provide]                        PROVIDE (_ld_ram_addr2 = ORIGIN (ram_wifi))
                0x0000000042049c00                PROVIDE (__boot2_pt_addr_src = BOOT2_PT_ADDR)
                0x0000000042049c18                PROVIDE (__boot2_flashCfg_src = BOOT2_FLASHCFG_ADDR)
                [!provide]                        PROVIDE (xTaskGetTickCount = 0x21017694)
                [!provide]                        PROVIDE (xTaskGetTickCountFromISR = 0x210176aa)
                [!provide]                        PROVIDE (pvPortMalloc = 0x21019662)
                [!provide]                        PROVIDE (vPortFree = 0x2101973a)
                [!provide]                        PROVIDE (vTaskNotifyGiveFromISR = 0x210188e8)
                [!provide]                        PROVIDE (vTaskSwitchContext = 0x21017a04)
                [!provide]                        PROVIDE (ulTaskNotifyTake = 0x21018548)
                [!provide]                        PROVIDE (vTaskExitCritical = 0x210183f4)
                [!provide]                        PROVIDE (vTaskEnterCritical = 0x210183e4)
                [!provide]                        PROVIDE (xTaskGetCurrentTaskHandle = 0x21018152)
                [!provide]                        PROVIDE (xQueueSemaphoreTake = 0x21015ce8)
                [!provide]                        PROVIDE (xQueueGenericSend = 0x21015834)
                [!provide]                        PROVIDE (xQueueGenericSendFromISR = 0x21015a4c)
                [!provide]                        PROVIDE (xTaskCreateStatic = 0x210170a2)
                [!provide]                        PROVIDE (xTaskCreate = 0x2101713a)
                [!provide]                        PROVIDE (xQueueCreateMutex = 0x21015a1c)
                [!provide]                        PROVIDE (xQueueCreateMutexStatic = 0x21015994)
                [!provide]                        PROVIDE (vQueueDelete = 0x210161d8)
                [!provide]                        PROVIDE (xQueueGenericCreateStatic = 0x210156c2)
                [!provide]                        PROVIDE (xQueueGenericCreate = 0x21015744)
                [!provide]                        PROVIDE (xQueueReceive = 0x21015b8a)
                [!provide]                        PROVIDE (uxQueueMessagesWaiting = 0x21016168)
                [!provide]                        PROVIDE (vTaskDelay = 0x210179c6)
                [!provide]                        PROVIDE (vTaskDelayUntil = 0x21017952)
                [!provide]                        PROVIDE (xPortGetFreeHeapSize = 0x210197ce)
                [!provide]                        PROVIDE (vTaskList = 0x21018408)
                [!provide]                        PROVIDE (xTimerGenericCommand = 0x21018bec)
                [!provide]                        PROVIDE (xTimerCreateTimerTask = 0x21018a9e)
                [!provide]                        PROVIDE (xTimerCreate = 0x21018af6)
                [!provide]                        PROVIDE (xTimerCreateStatic = 0x21018b66)
                [!provide]                        PROVIDE (xQueueCreateCountingSemaphoreStatic = 0x210157c2)
                [!provide]                        PROVIDE (xQueueCreateCountingSemaphore = 0x21015800)
                [!provide]                        PROVIDE (pTrapNetCounter = __global_pointer_head$)
                [!provide]                        PROVIDE (TrapNetCounter = (__global_pointer_head$ + 0x58))
                [!provide]                        PROVIDE (vEventGroupDelete = 0x210153be)
                [!provide]                        PROVIDE (xEventGroupWaitBits = 0x21015086)
                [!provide]                        PROVIDE (xEventGroupCreateStatic = 0x21015000)
                [!provide]                        PROVIDE (xEventGroupSetBits = 0x210151e0)
                [!provide]                        PROVIDE (xStreamBufferGenericCreateStatic = 0x210165c0)
                [!provide]                        PROVIDE (xStreamBufferReceive = 0x210169ae)
                [!provide]                        PROVIDE (xStreamBufferSend = 0x210167a8)
                [!provide]                        PROVIDE (pvTimerGetTimerID = 0x21018fd4)
                [!provide]                        PROVIDE (xTaskGenericNotify = 0x210186be)
                [!provide]                        PROVIDE (xTaskGenericNotifyFromISR = 0x210187de)
                [!provide]                        PROVIDE (xQueueGiveMutexRecursive = 0x210159c8)
                [!provide]                        PROVIDE (xQueueTakeMutexRecursive = 0x21015e70)
                [!provide]                        PROVIDE (xTaskGetTickCount2 = 0x2101769a)
                [!provide]                        PROVIDE (xQueueGiveFromISR = 0x21015b0e)
                [!provide]                        PROVIDE (vTaskDelete = 0x210171b6)
                [!provide]                        PROVIDE (uxTaskGetStackHighWaterMark = 0x21018110)
                [!provide]                        PROVIDE (pcTaskGetName = 0x210176b6)
                [!provide]                        PROVIDE (vTaskStartScheduler = 0x21017610)
                [!provide]                        PROVIDE (vPortDefineHeapRegions = 0x210197da)
                0x0000000000000000                PROVIDE (__LD_CONFIG_EM_SEL = __EM_SIZE)
                [!provide]                        PROVIDE (_ld_symbol_rom_framework_audio_device_start = _rom_framework_audio_device_start)
                [!provide]                        PROVIDE (_ld_symbol_rom_framework_audio_device_end = _rom_framework_audio_device_end)
OUTPUT(/home/jins/bl_iot_sdk/customer_app/tt_app_temperature/build_out/tt_app_temperature.elf elf32-littleriscv)

.riscv.attributes
                0x0000000000000000       0x2b
 .riscv.attributes
                0x0000000000000000       0x29 /home/jins/bl_iot_sdk/customer_app/tt_app_temperature/build_out/bl602/libbl602.a(start.o)
 .riscv.attributes
                0x0000000000000029       0x2b /home/jins/bl_iot_sdk/customer_app/tt_app_temperature/build_out/hal_drv/libhal_drv.a(hal_boot2.o)
 .riscv.attributes
                0x0000000000000054       0x2b /home/jins/bl_iot_sdk/customer_app/tt_app_temperature/build_out/tt_app_temperature/libtt_app_temperature.a(main.o)
 .riscv.attributes
                0x000000000000007f       0x2b /home/jins/bl_iot_sdk/customer_app/tt_app_temperature/build_out/bl602/libbl602.a(debug.o)
 .riscv.attributes
                0x00000000000000aa       0x2b /home/jins/bl_iot_sdk/customer_app/tt_app_temperature/build_out/bl602_std/libbl602_std.a(bl602_common.o)
 .riscv.attributes
                0x00000000000000d5       0x2b /home/jins/bl_iot_sdk/customer_app/tt_app_temperature/build_out/bl602_std/libbl602_std.a(platform_device.o)
 .riscv.attributes
                0x0000000000000100       0x2b /home/jins/bl_iot_sdk/customer_app/tt_app_temperature/build_out/bl602_std/libbl602_std.a(interrupt.o)
 .riscv.attributes
                0x000000000000012b       0x2b /home/jins/bl_iot_sdk/customer_app/tt_app_temperature/build_out/bl602_std/libbl602_std.a(bl602_romapi.o)
 .riscv.attributes
                0x0000000000000156       0x2b /home/jins/bl_iot_sdk/customer_app/tt_app_temperature/build_out/bl602_std/libbl602_std.a(bl602_uart.o)
 .riscv.attributes
                0x0000000000000181       0x2b /home/jins/bl_iot_sdk/customer_app/tt_app_temperature/build_out/bl602_std/libbl602_std.a(bl602_glb.o)
 .riscv.attributes
                0x00000000000001ac       0x2b /home/jins/bl_iot_sdk/customer_app/tt_app_temperature/build_out/bl602_std/libbl602_std.a(bl602_hbn.o)
 .riscv.attributes
                0x00000000000001d7       0x2b /home/jins/bl_iot_sdk/customer_app/tt_app_temperature/build_out/hal_drv/libhal_drv.a(bl_uart.o)
 .riscv.attributes
                0x0000000000000202       0x2b /home/jins/bl_iot_sdk/customer_app/tt_app_temperature/build_out/hal_drv/libhal_drv.a(bl_sys.o)
 .riscv.attributes
                0x000000000000022d       0x2b /home/jins/bl_iot_sdk/customer_app/tt_app_temperature/build_out/hal_drv/libhal_drv.a(bl_gpio.o)
 .riscv.attributes
                0x0000000000000258       0x26 /home/jins/bl_iot_sdk/toolchain/riscv/Linux/bin/../lib/gcc/riscv64-unknown-elf/8.3.0/../../../../riscv64-unknown-elf/lib/rv32imf/ilp32f/libm.a(lib_a-s_modf.o)
 .riscv.attributes
                0x000000000000027e       0x26 /home/jins/bl_iot_sdk/toolchain/riscv/Linux/bin/../lib/gcc/riscv64-unknown-elf/8.3.0/rv32imf/ilp32f/libgcc.a(_clzsi2.o)
 .riscv.attributes
                0x00000000000002a4       0x26 /home/jins/bl_iot_sdk/toolchain/riscv/Linux/bin/../lib/gcc/riscv64-unknown-elf/8.3.0/rv32imf/ilp32f/libgcc.a(_udivdi3.o)
 .riscv.attributes
                0x00000000000002ca       0x26 /home/jins/bl_iot_sdk/toolchain/riscv/Linux/bin/../lib/gcc/riscv64-unknown-elf/8.3.0/rv32imf/ilp32f/libgcc.a(_umoddi3.o)
 .riscv.attributes
                0x00000000000002f0       0x26 /home/jins/bl_iot_sdk/toolchain/riscv/Linux/bin/../lib/gcc/riscv64-unknown-elf/8.3.0/rv32imf/ilp32f/libgcc.a(adddf3.o)
 .riscv.attributes
                0x0000000000000316       0x26 /home/jins/bl_iot_sdk/toolchain/riscv/Linux/bin/../lib/gcc/riscv64-unknown-elf/8.3.0/rv32imf/ilp32f/libgcc.a(divdf3.o)
 .riscv.attributes
                0x000000000000033c       0x26 /home/jins/bl_iot_sdk/toolchain/riscv/Linux/bin/../lib/gcc/riscv64-unknown-elf/8.3.0/rv32imf/ilp32f/libgcc.a(eqdf2.o)
 .riscv.attributes
                0x0000000000000362       0x26 /home/jins/bl_iot_sdk/toolchain/riscv/Linux/bin/../lib/gcc/riscv64-unknown-elf/8.3.0/rv32imf/ilp32f/libgcc.a(gedf2.o)
 .riscv.attributes
                0x0000000000000388       0x26 /home/jins/bl_iot_sdk/toolchain/riscv/Linux/bin/../lib/gcc/riscv64-unknown-elf/8.3.0/rv32imf/ilp32f/libgcc.a(ledf2.o)
 .riscv.attributes
                0x00000000000003ae       0x26 /home/jins/bl_iot_sdk/toolchain/riscv/Linux/bin/../lib/gcc/riscv64-unknown-elf/8.3.0/rv32imf/ilp32f/libgcc.a(muldf3.o)
 .riscv.attributes
                0x00000000000003d4       0x26 /home/jins/bl_iot_sdk/toolchain/riscv/Linux/bin/../lib/gcc/riscv64-unknown-elf/8.3.0/rv32imf/ilp32f/libgcc.a(subdf3.o)
 .riscv.attributes
                0x00000000000003fa       0x26 /home/jins/bl_iot_sdk/toolchain/riscv/Linux/bin/../lib/gcc/riscv64-unknown-elf/8.3.0/rv32imf/ilp32f/libgcc.a(fixdfsi.o)
 .riscv.attributes
                0x0000000000000420       0x26 /home/jins/bl_iot_sdk/toolchain/riscv/Linux/bin/../lib/gcc/riscv64-unknown-elf/8.3.0/rv32imf/ilp32f/libgcc.a(_clz.o)
 .riscv.attributes
                0x0000000000000446       0x26 /home/jins/bl_iot_sdk/toolchain/riscv/Linux/bin/../lib/gcc/riscv64-unknown-elf/8.3.0/../../../../riscv64-unknown-elf/lib/rv32imf/ilp32f/libc.a(lib_a-memcpy.o)
 .riscv.attributes
                0x000000000000046c       0x26 /home/jins/bl_iot_sdk/toolchain/riscv/Linux/bin/../lib/gcc/riscv64-unknown-elf/8.3.0/../../../../riscv64-unknown-elf/lib/rv32imf/ilp32f/libc.a(lib_a-strlen.o)
 .riscv.attributes
                0x0000000000000492       0x26 /home/jins/bl_iot_sdk/toolchain/riscv/Linux/bin/../lib/gcc/riscv64-unknown-elf/8.3.0/../../../../riscv64-unknown-elf/lib/rv32imf/ilp32f/libc.a(lib_a-strnlen.o)

.comment        0x0000000000000000       0x28
 .comment       0x0000000000000000       0x28 /home/jins/bl_iot_sdk/customer_app/tt_app_temperature/build_out/hal_drv/libhal_drv.a(hal_boot2.o)
                                         0x29 (size before relaxing)
 .comment       0x0000000000000028       0x29 /home/jins/bl_iot_sdk/customer_app/tt_app_temperature/build_out/tt_app_temperature/libtt_app_temperature.a(main.o)
 .comment       0x0000000000000028       0x29 /home/jins/bl_iot_sdk/customer_app/tt_app_temperature/build_out/bl602/libbl602.a(debug.o)
 .comment       0x0000000000000028       0x29 /home/jins/bl_iot_sdk/customer_app/tt_app_temperature/build_out/bl602_std/libbl602_std.a(bl602_common.o)
 .comment       0x0000000000000028       0x29 /home/jins/bl_iot_sdk/customer_app/tt_app_temperature/build_out/bl602_std/libbl602_std.a(platform_device.o)
 .comment       0x0000000000000028       0x29 /home/jins/bl_iot_sdk/customer_app/tt_app_temperature/build_out/bl602_std/libbl602_std.a(interrupt.o)
 .comment       0x0000000000000028       0x29 /home/jins/bl_iot_sdk/customer_app/tt_app_temperature/build_out/bl602_std/libbl602_std.a(bl602_romapi.o)
 .comment       0x0000000000000028       0x29 /home/jins/bl_iot_sdk/customer_app/tt_app_temperature/build_out/bl602_std/libbl602_std.a(bl602_uart.o)
 .comment       0x0000000000000028       0x29 /home/jins/bl_iot_sdk/customer_app/tt_app_temperature/build_out/bl602_std/libbl602_std.a(bl602_glb.o)
 .comment       0x0000000000000028       0x29 /home/jins/bl_iot_sdk/customer_app/tt_app_temperature/build_out/bl602_std/libbl602_std.a(bl602_hbn.o)
 .comment       0x0000000000000028       0x29 /home/jins/bl_iot_sdk/customer_app/tt_app_temperature/build_out/hal_drv/libhal_drv.a(bl_uart.o)
 .comment       0x0000000000000028       0x29 /home/jins/bl_iot_sdk/customer_app/tt_app_temperature/build_out/hal_drv/libhal_drv.a(bl_sys.o)
 .comment       0x0000000000000028       0x29 /home/jins/bl_iot_sdk/customer_app/tt_app_temperature/build_out/hal_drv/libhal_drv.a(bl_gpio.o)
 .comment       0x0000000000000028       0x29 /home/jins/bl_iot_sdk/toolchain/riscv/Linux/bin/../lib/gcc/riscv64-unknown-elf/8.3.0/../../../../riscv64-unknown-elf/lib/rv32imf/ilp32f/libm.a(lib_a-s_modf.o)
 .comment       0x0000000000000028       0x29 /home/jins/bl_iot_sdk/toolchain/riscv/Linux/bin/../lib/gcc/riscv64-unknown-elf/8.3.0/rv32imf/ilp32f/libgcc.a(_clzsi2.o)
 .comment       0x0000000000000028       0x29 /home/jins/bl_iot_sdk/toolchain/riscv/Linux/bin/../lib/gcc/riscv64-unknown-elf/8.3.0/rv32imf/ilp32f/libgcc.a(_udivdi3.o)
 .comment       0x0000000000000028       0x29 /home/jins/bl_iot_sdk/toolchain/riscv/Linux/bin/../lib/gcc/riscv64-unknown-elf/8.3.0/rv32imf/ilp32f/libgcc.a(_umoddi3.o)
 .comment       0x0000000000000028       0x29 /home/jins/bl_iot_sdk/toolchain/riscv/Linux/bin/../lib/gcc/riscv64-unknown-elf/8.3.0/rv32imf/ilp32f/libgcc.a(adddf3.o)
 .comment       0x0000000000000028       0x29 /home/jins/bl_iot_sdk/toolchain/riscv/Linux/bin/../lib/gcc/riscv64-unknown-elf/8.3.0/rv32imf/ilp32f/libgcc.a(divdf3.o)
 .comment       0x0000000000000028       0x29 /home/jins/bl_iot_sdk/toolchain/riscv/Linux/bin/../lib/gcc/riscv64-unknown-elf/8.3.0/rv32imf/ilp32f/libgcc.a(eqdf2.o)
 .comment       0x0000000000000028       0x29 /home/jins/bl_iot_sdk/toolchain/riscv/Linux/bin/../lib/gcc/riscv64-unknown-elf/8.3.0/rv32imf/ilp32f/libgcc.a(gedf2.o)
 .comment       0x0000000000000028       0x29 /home/jins/bl_iot_sdk/toolchain/riscv/Linux/bin/../lib/gcc/riscv64-unknown-elf/8.3.0/rv32imf/ilp32f/libgcc.a(ledf2.o)
 .comment       0x0000000000000028       0x29 /home/jins/bl_iot_sdk/toolchain/riscv/Linux/bin/../lib/gcc/riscv64-unknown-elf/8.3.0/rv32imf/ilp32f/libgcc.a(muldf3.o)
 .comment       0x0000000000000028       0x29 /home/jins/bl_iot_sdk/toolchain/riscv/Linux/bin/../lib/gcc/riscv64-unknown-elf/8.3.0/rv32imf/ilp32f/libgcc.a(subdf3.o)
 .comment       0x0000000000000028       0x29 /home/jins/bl_iot_sdk/toolchain/riscv/Linux/bin/../lib/gcc/riscv64-unknown-elf/8.3.0/rv32imf/ilp32f/libgcc.a(fixdfsi.o)
 .comment       0x0000000000000028       0x29 /home/jins/bl_iot_sdk/toolchain/riscv/Linux/bin/../lib/gcc/riscv64-unknown-elf/8.3.0/rv32imf/ilp32f/libgcc.a(_clz.o)
 .comment       0x0000000000000028       0x29 /home/jins/bl_iot_sdk/toolchain/riscv/Linux/bin/../lib/gcc/riscv64-unknown-elf/8.3.0/../../../../riscv64-unknown-elf/lib/rv32imf/ilp32f/libc.a(lib_a-memcpy.o)
 .comment       0x0000000000000028       0x29 /home/jins/bl_iot_sdk/toolchain/riscv/Linux/bin/../lib/gcc/riscv64-unknown-elf/8.3.0/../../../../riscv64-unknown-elf/lib/rv32imf/ilp32f/libc.a(lib_a-strlen.o)
 .comment       0x0000000000000028       0x29 /home/jins/bl_iot_sdk/toolchain/riscv/Linux/bin/../lib/gcc/riscv64-unknown-elf/8.3.0/../../../../riscv64-unknown-elf/lib/rv32imf/ilp32f/libc.a(lib_a-strnlen.o)

.debug_line     0x0000000000000000    0x17520
 .debug_line    0x0000000000000000      0x220 /home/jins/bl_iot_sdk/customer_app/tt_app_temperature/build_out/bl602/libbl602.a(start.o)
 .debug_line    0x0000000000000220      0xd7a /home/jins/bl_iot_sdk/customer_app/tt_app_temperature/build_out/hal_drv/libhal_drv.a(hal_boot2.o)
 .debug_line    0x0000000000000f9a      0x5c3 /home/jins/bl_iot_sdk/customer_app/tt_app_temperature/build_out/tt_app_temperature/libtt_app_temperature.a(main.o)
 .debug_line    0x000000000000155d     0x29da /home/jins/bl_iot_sdk/customer_app/tt_app_temperature/build_out/bl602/libbl602.a(debug.o)
 .debug_line    0x0000000000003f37      0x7e9 /home/jins/bl_iot_sdk/customer_app/tt_app_temperature/build_out/bl602_std/libbl602_std.a(bl602_common.o)
 .debug_line    0x0000000000004720     0x111d /home/jins/bl_iot_sdk/customer_app/tt_app_temperature/build_out/bl602_std/libbl602_std.a(platform_device.o)
 .debug_line    0x000000000000583d      0x2e9 /home/jins/bl_iot_sdk/customer_app/tt_app_temperature/build_out/bl602_std/libbl602_std.a(interrupt.o)
 .debug_line    0x0000000000005b26     0x197a /home/jins/bl_iot_sdk/customer_app/tt_app_temperature/build_out/bl602_std/libbl602_std.a(bl602_romapi.o)
 .debug_line    0x00000000000074a0     0x190f /home/jins/bl_iot_sdk/customer_app/tt_app_temperature/build_out/bl602_std/libbl602_std.a(bl602_uart.o)
 .debug_line    0x0000000000008daf     0x3a66 /home/jins/bl_iot_sdk/customer_app/tt_app_temperature/build_out/bl602_std/libbl602_std.a(bl602_glb.o)
 .debug_line    0x000000000000c815     0x2237 /home/jins/bl_iot_sdk/customer_app/tt_app_temperature/build_out/bl602_std/libbl602_std.a(bl602_hbn.o)
 .debug_line    0x000000000000ea4c      0xede /home/jins/bl_iot_sdk/customer_app/tt_app_temperature/build_out/hal_drv/libhal_drv.a(bl_uart.o)
 .debug_line    0x000000000000f92a      0x52a /home/jins/bl_iot_sdk/customer_app/tt_app_temperature/build_out/hal_drv/libhal_drv.a(bl_sys.o)
 .debug_line    0x000000000000fe54      0x791 /home/jins/bl_iot_sdk/customer_app/tt_app_temperature/build_out/hal_drv/libhal_drv.a(bl_gpio.o)
 .debug_line    0x00000000000105e5      0x3ba /home/jins/bl_iot_sdk/toolchain/riscv/Linux/bin/../lib/gcc/riscv64-unknown-elf/8.3.0/rv32imf/ilp32f/libgcc.a(_clzsi2.o)
 .debug_line    0x000000000001099f      0x9fc /home/jins/bl_iot_sdk/toolchain/riscv/Linux/bin/../lib/gcc/riscv64-unknown-elf/8.3.0/rv32imf/ilp32f/libgcc.a(_udivdi3.o)
 .debug_line    0x000000000001139b      0xaac /home/jins/bl_iot_sdk/toolchain/riscv/Linux/bin/../lib/gcc/riscv64-unknown-elf/8.3.0/rv32imf/ilp32f/libgcc.a(_umoddi3.o)
 .debug_line    0x0000000000011e47     0x141d /home/jins/bl_iot_sdk/toolchain/riscv/Linux/bin/../lib/gcc/riscv64-unknown-elf/8.3.0/rv32imf/ilp32f/libgcc.a(adddf3.o)
 .debug_line    0x0000000000013264     0x10b7 /home/jins/bl_iot_sdk/toolchain/riscv/Linux/bin/../lib/gcc/riscv64-unknown-elf/8.3.0/rv32imf/ilp32f/libgcc.a(divdf3.o)
 .debug_line    0x000000000001431b      0x2d6 /home/jins/bl_iot_sdk/toolchain/riscv/Linux/bin/../lib/gcc/riscv64-unknown-elf/8.3.0/rv32imf/ilp32f/libgcc.a(eqdf2.o)
 .debug_line    0x00000000000145f1      0x30f /home/jins/bl_iot_sdk/toolchain/riscv/Linux/bin/../lib/gcc/riscv64-unknown-elf/8.3.0/rv32imf/ilp32f/libgcc.a(gedf2.o)
 .debug_line    0x0000000000014900      0x30f /home/jins/bl_iot_sdk/toolchain/riscv/Linux/bin/../lib/gcc/riscv64-unknown-elf/8.3.0/rv32imf/ilp32f/libgcc.a(ledf2.o)
 .debug_line    0x0000000000014c0f      0xe85 /home/jins/bl_iot_sdk/toolchain/riscv/Linux/bin/../lib/gcc/riscv64-unknown-elf/8.3.0/rv32imf/ilp32f/libgcc.a(muldf3.o)
 .debug_line    0x0000000000015a94     0x1477 /home/jins/bl_iot_sdk/toolchain/riscv/Linux/bin/../lib/gcc/riscv64-unknown-elf/8.3.0/rv32imf/ilp32f/libgcc.a(subdf3.o)
 .debug_line    0x0000000000016f0b      0x2dd /home/jins/bl_iot_sdk/toolchain/riscv/Linux/bin/../lib/gcc/riscv64-unknown-elf/8.3.0/rv32imf/ilp32f/libgcc.a(fixdfsi.o)
 .debug_line    0x00000000000171e8      0x338 /home/jins/bl_iot_sdk/toolchain/riscv/Linux/bin/../lib/gcc/riscv64-unknown-elf/8.3.0/rv32imf/ilp32f/libgcc.a(_clz.o)

.debug_info     0x0000000000000000    0x1a9e4
 .debug_info    0x0000000000000000       0x26 /home/jins/bl_iot_sdk/customer_app/tt_app_temperature/build_out/bl602/libbl602.a(start.o)
 .debug_info    0x0000000000000026     0x14ed /home/jins/bl_iot_sdk/customer_app/tt_app_temperature/build_out/hal_drv/libhal_drv.a(hal_boot2.o)
 .debug_info    0x0000000000001513      0xc22 /home/jins/bl_iot_sdk/customer_app/tt_app_temperature/build_out/tt_app_temperature/libtt_app_temperature.a(main.o)
 .debug_info    0x0000000000002135     0x183d /home/jins/bl_iot_sdk/customer_app/tt_app_temperature/build_out/bl602/libbl602.a(debug.o)
 .debug_info    0x0000000000003972      0xe9c /home/jins/bl_iot_sdk/customer_app/tt_app_temperature/build_out/bl602_std/libbl602_std.a(bl602_common.o)
 .debug_info    0x000000000000480e     0x1bfc /home/jins/bl_iot_sdk/customer_app/tt_app_temperature/build_out/bl602_std/libbl602_std.a(platform_device.o)
 .debug_info    0x000000000000640a      0x258 /home/jins/bl_iot_sdk/customer_app/tt_app_temperature/build_out/bl602_std/libbl602_std.a(interrupt.o)
 .debug_info    0x0000000000006662     0x452e /home/jins/bl_iot_sdk/customer_app/tt_app_temperature/build_out/bl602_std/libbl602_std.a(bl602_romapi.o)
 .debug_info    0x000000000000ab90     0x1929 /home/jins/bl_iot_sdk/customer_app/tt_app_temperature/build_out/bl602_std/libbl602_std.a(bl602_uart.o)
 .debug_info    0x000000000000c4b9     0x29ed /home/jins/bl_iot_sdk/customer_app/tt_app_temperature/build_out/bl602_std/libbl602_std.a(bl602_glb.o)
 .debug_info    0x000000000000eea6     0x2302 /home/jins/bl_iot_sdk/customer_app/tt_app_temperature/build_out/bl602_std/libbl602_std.a(bl602_hbn.o)
 .debug_info    0x00000000000111a8     0x198e /home/jins/bl_iot_sdk/customer_app/tt_app_temperature/build_out/hal_drv/libhal_drv.a(bl_uart.o)
 .debug_info    0x0000000000012b36      0xbce /home/jins/bl_iot_sdk/customer_app/tt_app_temperature/build_out/hal_drv/libhal_drv.a(bl_sys.o)
 .debug_info    0x0000000000013704     0x11f9 /home/jins/bl_iot_sdk/customer_app/tt_app_temperature/build_out/hal_drv/libhal_drv.a(bl_gpio.o)
 .debug_info    0x00000000000148fd      0xbd7 /home/jins/bl_iot_sdk/toolchain/riscv/Linux/bin/../lib/gcc/riscv64-unknown-elf/8.3.0/rv32imf/ilp32f/libgcc.a(_clzsi2.o)
 .debug_info    0x00000000000154d4     0x1245 /home/jins/bl_iot_sdk/toolchain/riscv/Linux/bin/../lib/gcc/riscv64-unknown-elf/8.3.0/rv32imf/ilp32f/libgcc.a(_udivdi3.o)
 .debug_info    0x0000000000016719     0x12a3 /home/jins/bl_iot_sdk/toolchain/riscv/Linux/bin/../lib/gcc/riscv64-unknown-elf/8.3.0/rv32imf/ilp32f/libgcc.a(_umoddi3.o)
 .debug_info    0x00000000000179bc      0x5f2 /home/jins/bl_iot_sdk/toolchain/riscv/Linux/bin/../lib/gcc/riscv64-unknown-elf/8.3.0/rv32imf/ilp32f/libgcc.a(adddf3.o)
 .debug_info    0x0000000000017fae      0x773 /home/jins/bl_iot_sdk/toolchain/riscv/Linux/bin/../lib/gcc/riscv64-unknown-elf/8.3.0/rv32imf/ilp32f/libgcc.a(divdf3.o)
 .debug_info    0x0000000000018721      0x29e /home/jins/bl_iot_sdk/toolchain/riscv/Linux/bin/../lib/gcc/riscv64-unknown-elf/8.3.0/rv32imf/ilp32f/libgcc.a(eqdf2.o)
 .debug_info    0x00000000000189bf      0x285 /home/jins/bl_iot_sdk/toolchain/riscv/Linux/bin/../lib/gcc/riscv64-unknown-elf/8.3.0/rv32imf/ilp32f/libgcc.a(gedf2.o)
 .debug_info    0x0000000000018c44      0x285 /home/jins/bl_iot_sdk/toolchain/riscv/Linux/bin/../lib/gcc/riscv64-unknown-elf/8.3.0/rv32imf/ilp32f/libgcc.a(ledf2.o)
 .debug_info    0x0000000000018ec9      0x7ab /home/jins/bl_iot_sdk/toolchain/riscv/Linux/bin/../lib/gcc/riscv64-unknown-elf/8.3.0/rv32imf/ilp32f/libgcc.a(muldf3.o)
 .debug_info    0x0000000000019674      0x5ec /home/jins/bl_iot_sdk/toolchain/riscv/Linux/bin/../lib/gcc/riscv64-unknown-elf/8.3.0/rv32imf/ilp32f/libgcc.a(subdf3.o)
 .debug_info    0x0000000000019c60      0x21a /home/jins/bl_iot_sdk/toolchain/riscv/Linux/bin/../lib/gcc/riscv64-unknown-elf/8.3.0/rv32imf/ilp32f/libgcc.a(fixdfsi.o)
 .debug_info    0x0000000000019e7a      0xb6a /home/jins/bl_iot_sdk/toolchain/riscv/Linux/bin/../lib/gcc/riscv64-unknown-elf/8.3.0/rv32imf/ilp32f/libgcc.a(_clz.o)

.debug_abbrev   0x0000000000000000     0x439b
 .debug_abbrev  0x0000000000000000       0x14 /home/jins/bl_iot_sdk/customer_app/tt_app_temperature/build_out/bl602/libbl602.a(start.o)
 .debug_abbrev  0x0000000000000014      0x3bb /home/jins/bl_iot_sdk/customer_app/tt_app_temperature/build_out/hal_drv/libhal_drv.a(hal_boot2.o)
 .debug_abbrev  0x00000000000003cf      0x27e /home/jins/bl_iot_sdk/customer_app/tt_app_temperature/build_out/tt_app_temperature/libtt_app_temperature.a(main.o)
 .debug_abbrev  0x000000000000064d      0x4e5 /home/jins/bl_iot_sdk/customer_app/tt_app_temperature/build_out/bl602/libbl602.a(debug.o)
 .debug_abbrev  0x0000000000000b32      0x369 /home/jins/bl_iot_sdk/customer_app/tt_app_temperature/build_out/bl602_std/libbl602_std.a(bl602_common.o)
 .debug_abbrev  0x0000000000000e9b      0x490 /home/jins/bl_iot_sdk/customer_app/tt_app_temperature/build_out/bl602_std/libbl602_std.a(platform_device.o)
 .debug_abbrev  0x000000000000132b      0x12d /home/jins/bl_iot_sdk/customer_app/tt_app_temperature/build_out/bl602_std/libbl602_std.a(interrupt.o)
 .debug_abbrev  0x0000000000001458      0x396 /home/jins/bl_iot_sdk/customer_app/tt_app_temperature/build_out/bl602_std/libbl602_std.a(bl602_romapi.o)
 .debug_abbrev  0x00000000000017ee      0x2f4 /home/jins/bl_iot_sdk/customer_app/tt_app_temperature/build_out/bl602_std/libbl602_std.a(bl602_uart.o)
 .debug_abbrev  0x0000000000001ae2      0x3d2 /home/jins/bl_iot_sdk/customer_app/tt_app_temperature/build_out/bl602_std/libbl602_std.a(bl602_glb.o)
 .debug_abbrev  0x0000000000001eb4      0x37e /home/jins/bl_iot_sdk/customer_app/tt_app_temperature/build_out/bl602_std/libbl602_std.a(bl602_hbn.o)
 .debug_abbrev  0x0000000000002232      0x431 /home/jins/bl_iot_sdk/customer_app/tt_app_temperature/build_out/hal_drv/libhal_drv.a(bl_uart.o)
 .debug_abbrev  0x0000000000002663      0x31e /home/jins/bl_iot_sdk/customer_app/tt_app_temperature/build_out/hal_drv/libhal_drv.a(bl_sys.o)
 .debug_abbrev  0x0000000000002981      0x3bd /home/jins/bl_iot_sdk/customer_app/tt_app_temperature/build_out/hal_drv/libhal_drv.a(bl_gpio.o)
 .debug_abbrev  0x0000000000002d3e      0x242 /home/jins/bl_iot_sdk/toolchain/riscv/Linux/bin/../lib/gcc/riscv64-unknown-elf/8.3.0/rv32imf/ilp32f/libgcc.a(_clzsi2.o)
 .debug_abbrev  0x0000000000002f80      0x2cc /home/jins/bl_iot_sdk/toolchain/riscv/Linux/bin/../lib/gcc/riscv64-unknown-elf/8.3.0/rv32imf/ilp32f/libgcc.a(_udivdi3.o)
 .debug_abbrev  0x000000000000324c      0x2e8 /home/jins/bl_iot_sdk/toolchain/riscv/Linux/bin/../lib/gcc/riscv64-unknown-elf/8.3.0/rv32imf/ilp32f/libgcc.a(_umoddi3.o)
 .debug_abbrev  0x0000000000003534      0x19a /home/jins/bl_iot_sdk/toolchain/riscv/Linux/bin/../lib/gcc/riscv64-unknown-elf/8.3.0/rv32imf/ilp32f/libgcc.a(adddf3.o)
 .debug_abbrev  0x00000000000036ce      0x17f /home/jins/bl_iot_sdk/toolchain/riscv/Linux/bin/../lib/gcc/riscv64-unknown-elf/8.3.0/rv32imf/ilp32f/libgcc.a(divdf3.o)
 .debug_abbrev  0x000000000000384d      0x1a4 /home/jins/bl_iot_sdk/toolchain/riscv/Linux/bin/../lib/gcc/riscv64-unknown-elf/8.3.0/rv32imf/ilp32f/libgcc.a(eqdf2.o)
 .debug_abbrev  0x00000000000039f1      0x199 /home/jins/bl_iot_sdk/toolchain/riscv/Linux/bin/../lib/gcc/riscv64-unknown-elf/8.3.0/rv32imf/ilp32f/libgcc.a(gedf2.o)
 .debug_abbrev  0x0000000000003b8a      0x199 /home/jins/bl_iot_sdk/toolchain/riscv/Linux/bin/../lib/gcc/riscv64-unknown-elf/8.3.0/rv32imf/ilp32f/libgcc.a(ledf2.o)
 .debug_abbrev  0x0000000000003d23      0x186 /home/jins/bl_iot_sdk/toolchain/riscv/Linux/bin/../lib/gcc/riscv64-unknown-elf/8.3.0/rv32imf/ilp32f/libgcc.a(muldf3.o)
 .debug_abbrev  0x0000000000003ea9      0x189 /home/jins/bl_iot_sdk/toolchain/riscv/Linux/bin/../lib/gcc/riscv64-unknown-elf/8.3.0/rv32imf/ilp32f/libgcc.a(subdf3.o)
 .debug_abbrev  0x0000000000004032      0x181 /home/jins/bl_iot_sdk/toolchain/riscv/Linux/bin/../lib/gcc/riscv64-unknown-elf/8.3.0/rv32imf/ilp32f/libgcc.a(fixdfsi.o)
 .debug_abbrev  0x00000000000041b3      0x1e8 /home/jins/bl_iot_sdk/toolchain/riscv/Linux/bin/../lib/gcc/riscv64-unknown-elf/8.3.0/rv32imf/ilp32f/libgcc.a(_clz.o)

.debug_aranges  0x0000000000000000     0x10e8
 .debug_aranges
                0x0000000000000000       0x20 /home/jins/bl_iot_sdk/customer_app/tt_app_temperature/build_out/bl602/libbl602.a(start.o)
 .debug_aranges
                0x0000000000000020       0x80 /home/jins/bl_iot_sdk/customer_app/tt_app_temperature/build_out/hal_drv/libhal_drv.a(hal_boot2.o)
 .debug_aranges
                0x00000000000000a0       0x30 /home/jins/bl_iot_sdk/customer_app/tt_app_temperature/build_out/tt_app_temperature/libtt_app_temperature.a(main.o)
 .debug_aranges
                0x00000000000000d0       0x88 /home/jins/bl_iot_sdk/customer_app/tt_app_temperature/build_out/bl602/libbl602.a(debug.o)
 .debug_aranges
                0x0000000000000158       0x70 /home/jins/bl_iot_sdk/customer_app/tt_app_temperature/build_out/bl602_std/libbl602_std.a(bl602_common.o)
 .debug_aranges
                0x00000000000001c8       0xd0 /home/jins/bl_iot_sdk/customer_app/tt_app_temperature/build_out/bl602_std/libbl602_std.a(platform_device.o)
 .debug_aranges
                0x0000000000000298       0x68 /home/jins/bl_iot_sdk/customer_app/tt_app_temperature/build_out/bl602_std/libbl602_std.a(interrupt.o)
 .debug_aranges
                0x0000000000000300      0x568 /home/jins/bl_iot_sdk/customer_app/tt_app_temperature/build_out/bl602_std/libbl602_std.a(bl602_romapi.o)
 .debug_aranges
                0x0000000000000868      0x108 /home/jins/bl_iot_sdk/customer_app/tt_app_temperature/build_out/bl602_std/libbl602_std.a(bl602_uart.o)
 .debug_aranges
                0x0000000000000970      0x288 /home/jins/bl_iot_sdk/customer_app/tt_app_temperature/build_out/bl602_std/libbl602_std.a(bl602_glb.o)
 .debug_aranges
                0x0000000000000bf8      0x1f8 /home/jins/bl_iot_sdk/customer_app/tt_app_temperature/build_out/bl602_std/libbl602_std.a(bl602_hbn.o)
 .debug_aranges
                0x0000000000000df0       0xb8 /home/jins/bl_iot_sdk/customer_app/tt_app_temperature/build_out/hal_drv/libhal_drv.a(bl_uart.o)
 .debug_aranges
                0x0000000000000ea8       0x60 /home/jins/bl_iot_sdk/customer_app/tt_app_temperature/build_out/hal_drv/libhal_drv.a(bl_sys.o)
 .debug_aranges
                0x0000000000000f08       0x68 /home/jins/bl_iot_sdk/customer_app/tt_app_temperature/build_out/hal_drv/libhal_drv.a(bl_gpio.o)
 .debug_aranges
                0x0000000000000f70       0x20 /home/jins/bl_iot_sdk/toolchain/riscv/Linux/bin/../lib/gcc/riscv64-unknown-elf/8.3.0/rv32imf/ilp32f/libgcc.a(_clzsi2.o)
 .debug_aranges
                0x0000000000000f90       0x20 /home/jins/bl_iot_sdk/toolchain/riscv/Linux/bin/../lib/gcc/riscv64-unknown-elf/8.3.0/rv32imf/ilp32f/libgcc.a(_udivdi3.o)
 .debug_aranges
                0x0000000000000fb0       0x20 /home/jins/bl_iot_sdk/toolchain/riscv/Linux/bin/../lib/gcc/riscv64-unknown-elf/8.3.0/rv32imf/ilp32f/libgcc.a(_umoddi3.o)
 .debug_aranges
                0x0000000000000fd0       0x20 /home/jins/bl_iot_sdk/toolchain/riscv/Linux/bin/../lib/gcc/riscv64-unknown-elf/8.3.0/rv32imf/ilp32f/libgcc.a(adddf3.o)
 .debug_aranges
                0x0000000000000ff0       0x20 /home/jins/bl_iot_sdk/toolchain/riscv/Linux/bin/../lib/gcc/riscv64-unknown-elf/8.3.0/rv32imf/ilp32f/libgcc.a(divdf3.o)
 .debug_aranges
                0x0000000000001010       0x20 /home/jins/bl_iot_sdk/toolchain/riscv/Linux/bin/../lib/gcc/riscv64-unknown-elf/8.3.0/rv32imf/ilp32f/libgcc.a(eqdf2.o)
 .debug_aranges
                0x0000000000001030       0x20 /home/jins/bl_iot_sdk/toolchain/riscv/Linux/bin/../lib/gcc/riscv64-unknown-elf/8.3.0/rv32imf/ilp32f/libgcc.a(gedf2.o)
 .debug_aranges
                0x0000000000001050       0x20 /home/jins/bl_iot_sdk/toolchain/riscv/Linux/bin/../lib/gcc/riscv64-unknown-elf/8.3.0/rv32imf/ilp32f/libgcc.a(ledf2.o)
 .debug_aranges
                0x0000000000001070       0x20 /home/jins/bl_iot_sdk/toolchain/riscv/Linux/bin/../lib/gcc/riscv64-unknown-elf/8.3.0/rv32imf/ilp32f/libgcc.a(muldf3.o)
 .debug_aranges
                0x0000000000001090       0x20 /home/jins/bl_iot_sdk/toolchain/riscv/Linux/bin/../lib/gcc/riscv64-unknown-elf/8.3.0/rv32imf/ilp32f/libgcc.a(subdf3.o)
 .debug_aranges
                0x00000000000010b0       0x20 /home/jins/bl_iot_sdk/toolchain/riscv/Linux/bin/../lib/gcc/riscv64-unknown-elf/8.3.0/rv32imf/ilp32f/libgcc.a(fixdfsi.o)
 .debug_aranges
                0x00000000000010d0       0x18 /home/jins/bl_iot_sdk/toolchain/riscv/Linux/bin/../lib/gcc/riscv64-unknown-elf/8.3.0/rv32imf/ilp32f/libgcc.a(_clz.o)

.debug_str      0x0000000000000000     0x762a
 .debug_str     0x0000000000000000       0x98 /home/jins/bl_iot_sdk/customer_app/tt_app_temperature/build_out/bl602/libbl602.a(start.o)
 .debug_str     0x0000000000000098      0x95b /home/jins/bl_iot_sdk/customer_app/tt_app_temperature/build_out/hal_drv/libhal_drv.a(hal_boot2.o)
                                        0xa59 (size before relaxing)
 .debug_str     0x00000000000009f3      0x142 /home/jins/bl_iot_sdk/customer_app/tt_app_temperature/build_out/tt_app_temperature/libtt_app_temperature.a(main.o)
                                        0x703 (size before relaxing)
 .debug_str     0x0000000000000b35      0x2ec /home/jins/bl_iot_sdk/customer_app/tt_app_temperature/build_out/bl602/libbl602.a(debug.o)
                                        0x8e0 (size before relaxing)
 .debug_str     0x0000000000000e21      0x107 /home/jins/bl_iot_sdk/customer_app/tt_app_temperature/build_out/bl602_std/libbl602_std.a(bl602_common.o)
                                        0x6f4 (size before relaxing)
 .debug_str     0x0000000000000f28      0xdcf /home/jins/bl_iot_sdk/customer_app/tt_app_temperature/build_out/bl602_std/libbl602_std.a(platform_device.o)
                                       0x147d (size before relaxing)
 .debug_str     0x0000000000001cf7      0x10f /home/jins/bl_iot_sdk/customer_app/tt_app_temperature/build_out/bl602_std/libbl602_std.a(interrupt.o)
                                        0x2f3 (size before relaxing)
 .debug_str     0x0000000000001e06     0x2ff9 /home/jins/bl_iot_sdk/customer_app/tt_app_temperature/build_out/bl602_std/libbl602_std.a(bl602_romapi.o)
                                       0x4463 (size before relaxing)
 .debug_str     0x0000000000004dff      0x3df /home/jins/bl_iot_sdk/customer_app/tt_app_temperature/build_out/bl602_std/libbl602_std.a(bl602_uart.o)
                                        0xf31 (size before relaxing)
 .debug_str     0x00000000000051de      0xd3e /home/jins/bl_iot_sdk/customer_app/tt_app_temperature/build_out/bl602_std/libbl602_std.a(bl602_glb.o)
                                       0x1ead (size before relaxing)
 .debug_str     0x0000000000005f1c      0x739 /home/jins/bl_iot_sdk/customer_app/tt_app_temperature/build_out/bl602_std/libbl602_std.a(bl602_hbn.o)
                                       0x1935 (size before relaxing)
 .debug_str     0x0000000000006655      0x2d0 /home/jins/bl_iot_sdk/customer_app/tt_app_temperature/build_out/hal_drv/libhal_drv.a(bl_uart.o)
                                       0x114c (size before relaxing)
 .debug_str     0x0000000000006925      0x135 /home/jins/bl_iot_sdk/customer_app/tt_app_temperature/build_out/hal_drv/libhal_drv.a(bl_sys.o)
                                        0x78b (size before relaxing)
 .debug_str     0x0000000000006a5a      0x13b /home/jins/bl_iot_sdk/customer_app/tt_app_temperature/build_out/hal_drv/libhal_drv.a(bl_gpio.o)
                                        0xd1e (size before relaxing)
 .debug_str     0x0000000000006b95      0x356 /home/jins/bl_iot_sdk/toolchain/riscv/Linux/bin/../lib/gcc/riscv64-unknown-elf/8.3.0/rv32imf/ilp32f/libgcc.a(_clzsi2.o)
                                        0x805 (size before relaxing)
 .debug_str     0x0000000000006eeb      0x132 /home/jins/bl_iot_sdk/toolchain/riscv/Linux/bin/../lib/gcc/riscv64-unknown-elf/8.3.0/rv32imf/ilp32f/libgcc.a(_udivdi3.o)
                                        0x8a1 (size before relaxing)
 .debug_str     0x000000000000701d        0xa /home/jins/bl_iot_sdk/toolchain/riscv/Linux/bin/../lib/gcc/riscv64-unknown-elf/8.3.0/rv32imf/ilp32f/libgcc.a(_umoddi3.o)
                                        0x8a1 (size before relaxing)
 .debug_str     0x0000000000007027      0x194 /home/jins/bl_iot_sdk/toolchain/riscv/Linux/bin/../lib/gcc/riscv64-unknown-elf/8.3.0/rv32imf/ilp32f/libgcc.a(adddf3.o)
                                        0x367 (size before relaxing)
 .debug_str     0x00000000000071bb      0x19c /home/jins/bl_iot_sdk/toolchain/riscv/Linux/bin/../lib/gcc/riscv64-unknown-elf/8.3.0/rv32imf/ilp32f/libgcc.a(divdf3.o)
                                        0x429 (size before relaxing)
 .debug_str     0x0000000000007357       0x57 /home/jins/bl_iot_sdk/toolchain/riscv/Linux/bin/../lib/gcc/riscv64-unknown-elf/8.3.0/rv32imf/ilp32f/libgcc.a(eqdf2.o)
                                        0x281 (size before relaxing)
 .debug_str     0x00000000000073ae       0x5c /home/jins/bl_iot_sdk/toolchain/riscv/Linux/bin/../lib/gcc/riscv64-unknown-elf/8.3.0/rv32imf/ilp32f/libgcc.a(gedf2.o)
                                        0x2a5 (size before relaxing)
 .debug_str     0x000000000000740a       0x38 /home/jins/bl_iot_sdk/toolchain/riscv/Linux/bin/../lib/gcc/riscv64-unknown-elf/8.3.0/rv32imf/ilp32f/libgcc.a(ledf2.o)
                                        0x2a5 (size before relaxing)
 .debug_str     0x0000000000007442      0x15f /home/jins/bl_iot_sdk/toolchain/riscv/Linux/bin/../lib/gcc/riscv64-unknown-elf/8.3.0/rv32imf/ilp32f/libgcc.a(muldf3.o)
                                        0x481 (size before relaxing)
 .debug_str     0x00000000000075a1       0x3a /home/jins/bl_iot_sdk/toolchain/riscv/Linux/bin/../lib/gcc/riscv64-unknown-elf/8.3.0/rv32imf/ilp32f/libgcc.a(subdf3.o)
                                        0x367 (size before relaxing)
 .debug_str     0x00000000000075db       0x4f /home/jins/bl_iot_sdk/toolchain/riscv/Linux/bin/../lib/gcc/riscv64-unknown-elf/8.3.0/rv32imf/ilp32f/libgcc.a(fixdfsi.o)
                                        0x27e (size before relaxing)
 .debug_str     0x000000000000762a      0x7e8 /home/jins/bl_iot_sdk/toolchain/riscv/Linux/bin/../lib/gcc/riscv64-unknown-elf/8.3.0/rv32imf/ilp32f/libgcc.a(_clz.o)

.debug_loc      0x0000000000000000    0x1211c
 .debug_loc     0x0000000000000000      0x775 /home/jins/bl_iot_sdk/customer_app/tt_app_temperature/build_out/hal_drv/libhal_drv.a(hal_boot2.o)
 .debug_loc     0x0000000000000775       0x86 /home/jins/bl_iot_sdk/customer_app/tt_app_temperature/build_out/tt_app_temperature/libtt_app_temperature.a(main.o)
 .debug_loc     0x00000000000007fb     0x233d /home/jins/bl_iot_sdk/customer_app/tt_app_temperature/build_out/bl602/libbl602.a(debug.o)
 .debug_loc     0x0000000000002b38      0x64e /home/jins/bl_iot_sdk/customer_app/tt_app_temperature/build_out/bl602_std/libbl602_std.a(bl602_common.o)
 .debug_loc     0x0000000000003186      0x61a /home/jins/bl_iot_sdk/customer_app/tt_app_temperature/build_out/bl602_std/libbl602_std.a(platform_device.o)
 .debug_loc     0x00000000000037a0      0x122 /home/jins/bl_iot_sdk/customer_app/tt_app_temperature/build_out/bl602_std/libbl602_std.a(interrupt.o)
 .debug_loc     0x00000000000038c2     0x1c9e /home/jins/bl_iot_sdk/customer_app/tt_app_temperature/build_out/bl602_std/libbl602_std.a(bl602_romapi.o)
 .debug_loc     0x0000000000005560     0x10b9 /home/jins/bl_iot_sdk/customer_app/tt_app_temperature/build_out/bl602_std/libbl602_std.a(bl602_uart.o)
 .debug_loc     0x0000000000006619     0x1b1b /home/jins/bl_iot_sdk/customer_app/tt_app_temperature/build_out/bl602_std/libbl602_std.a(bl602_glb.o)
 .debug_loc     0x0000000000008134     0x1008 /home/jins/bl_iot_sdk/customer_app/tt_app_temperature/build_out/bl602_std/libbl602_std.a(bl602_hbn.o)
 .debug_loc     0x000000000000913c      0x5e6 /home/jins/bl_iot_sdk/customer_app/tt_app_temperature/build_out/hal_drv/libhal_drv.a(bl_uart.o)
 .debug_loc     0x0000000000009722       0x4e /home/jins/bl_iot_sdk/customer_app/tt_app_temperature/build_out/hal_drv/libhal_drv.a(bl_sys.o)
 .debug_loc     0x0000000000009770      0x452 /home/jins/bl_iot_sdk/customer_app/tt_app_temperature/build_out/hal_drv/libhal_drv.a(bl_gpio.o)
 .debug_loc     0x0000000000009bc2       0x6b /home/jins/bl_iot_sdk/toolchain/riscv/Linux/bin/../lib/gcc/riscv64-unknown-elf/8.3.0/rv32imf/ilp32f/libgcc.a(_clzsi2.o)
 .debug_loc     0x0000000000009c2d      0xbd0 /home/jins/bl_iot_sdk/toolchain/riscv/Linux/bin/../lib/gcc/riscv64-unknown-elf/8.3.0/rv32imf/ilp32f/libgcc.a(_udivdi3.o)
 .debug_loc     0x000000000000a7fd      0x969 /home/jins/bl_iot_sdk/toolchain/riscv/Linux/bin/../lib/gcc/riscv64-unknown-elf/8.3.0/rv32imf/ilp32f/libgcc.a(_umoddi3.o)
 .debug_loc     0x000000000000b166     0x1dad /home/jins/bl_iot_sdk/toolchain/riscv/Linux/bin/../lib/gcc/riscv64-unknown-elf/8.3.0/rv32imf/ilp32f/libgcc.a(adddf3.o)
 .debug_loc     0x000000000000cf13     0x16c9 /home/jins/bl_iot_sdk/toolchain/riscv/Linux/bin/../lib/gcc/riscv64-unknown-elf/8.3.0/rv32imf/ilp32f/libgcc.a(divdf3.o)
 .debug_loc     0x000000000000e5dc      0x192 /home/jins/bl_iot_sdk/toolchain/riscv/Linux/bin/../lib/gcc/riscv64-unknown-elf/8.3.0/rv32imf/ilp32f/libgcc.a(eqdf2.o)
 .debug_loc     0x000000000000e76e      0x156 /home/jins/bl_iot_sdk/toolchain/riscv/Linux/bin/../lib/gcc/riscv64-unknown-elf/8.3.0/rv32imf/ilp32f/libgcc.a(gedf2.o)
 .debug_loc     0x000000000000e8c4      0x156 /home/jins/bl_iot_sdk/toolchain/riscv/Linux/bin/../lib/gcc/riscv64-unknown-elf/8.3.0/rv32imf/ilp32f/libgcc.a(ledf2.o)
 .debug_loc     0x000000000000ea1a     0x112d /home/jins/bl_iot_sdk/toolchain/riscv/Linux/bin/../lib/gcc/riscv64-unknown-elf/8.3.0/rv32imf/ilp32f/libgcc.a(muldf3.o)
 .debug_loc     0x000000000000fb47     0x2366 /home/jins/bl_iot_sdk/toolchain/riscv/Linux/bin/../lib/gcc/riscv64-unknown-elf/8.3.0/rv32imf/ilp32f/libgcc.a(subdf3.o)
 .debug_loc     0x0000000000011ead      0x26f /home/jins/bl_iot_sdk/toolchain/riscv/Linux/bin/../lib/gcc/riscv64-unknown-elf/8.3.0/rv32imf/ilp32f/libgcc.a(fixdfsi.o)

.debug_ranges   0x0000000000000000     0x1dc0
 .debug_ranges  0x0000000000000000       0xa0 /home/jins/bl_iot_sdk/customer_app/tt_app_temperature/build_out/hal_drv/libhal_drv.a(hal_boot2.o)
 .debug_ranges  0x00000000000000a0       0x20 /home/jins/bl_iot_sdk/customer_app/tt_app_temperature/build_out/tt_app_temperature/libtt_app_temperature.a(main.o)
 .debug_ranges  0x00000000000000c0      0x138 /home/jins/bl_iot_sdk/customer_app/tt_app_temperature/build_out/bl602/libbl602.a(debug.o)
 .debug_ranges  0x00000000000001f8       0x78 /home/jins/bl_iot_sdk/customer_app/tt_app_temperature/build_out/bl602_std/libbl602_std.a(bl602_common.o)
 .debug_ranges  0x0000000000000270       0xc0 /home/jins/bl_iot_sdk/customer_app/tt_app_temperature/build_out/bl602_std/libbl602_std.a(platform_device.o)
 .debug_ranges  0x0000000000000330       0x58 /home/jins/bl_iot_sdk/customer_app/tt_app_temperature/build_out/bl602_std/libbl602_std.a(interrupt.o)
 .debug_ranges  0x0000000000000388      0x558 /home/jins/bl_iot_sdk/customer_app/tt_app_temperature/build_out/bl602_std/libbl602_std.a(bl602_romapi.o)
 .debug_ranges  0x00000000000008e0       0xf8 /home/jins/bl_iot_sdk/customer_app/tt_app_temperature/build_out/bl602_std/libbl602_std.a(bl602_uart.o)
 .debug_ranges  0x00000000000009d8      0x2a8 /home/jins/bl_iot_sdk/customer_app/tt_app_temperature/build_out/bl602_std/libbl602_std.a(bl602_glb.o)
 .debug_ranges  0x0000000000000c80      0x1e8 /home/jins/bl_iot_sdk/customer_app/tt_app_temperature/build_out/bl602_std/libbl602_std.a(bl602_hbn.o)
 .debug_ranges  0x0000000000000e68       0xc0 /home/jins/bl_iot_sdk/customer_app/tt_app_temperature/build_out/hal_drv/libhal_drv.a(bl_uart.o)
 .debug_ranges  0x0000000000000f28       0x80 /home/jins/bl_iot_sdk/customer_app/tt_app_temperature/build_out/hal_drv/libhal_drv.a(bl_sys.o)
 .debug_ranges  0x0000000000000fa8       0x88 /home/jins/bl_iot_sdk/customer_app/tt_app_temperature/build_out/hal_drv/libhal_drv.a(bl_gpio.o)
 .debug_ranges  0x0000000000001030       0x20 /home/jins/bl_iot_sdk/toolchain/riscv/Linux/bin/../lib/gcc/riscv64-unknown-elf/8.3.0/rv32imf/ilp32f/libgcc.a(_clzsi2.o)
 .debug_ranges  0x0000000000001050      0x100 /home/jins/bl_iot_sdk/toolchain/riscv/Linux/bin/../lib/gcc/riscv64-unknown-elf/8.3.0/rv32imf/ilp32f/libgcc.a(_udivdi3.o)
 .debug_ranges  0x0000000000001150       0xd0 /home/jins/bl_iot_sdk/toolchain/riscv/Linux/bin/../lib/gcc/riscv64-unknown-elf/8.3.0/rv32imf/ilp32f/libgcc.a(_umoddi3.o)
 .debug_ranges  0x0000000000001220      0x2f0 /home/jins/bl_iot_sdk/toolchain/riscv/Linux/bin/../lib/gcc/riscv64-unknown-elf/8.3.0/rv32imf/ilp32f/libgcc.a(adddf3.o)
 .debug_ranges  0x0000000000001510      0x1d0 /home/jins/bl_iot_sdk/toolchain/riscv/Linux/bin/../lib/gcc/riscv64-unknown-elf/8.3.0/rv32imf/ilp32f/libgcc.a(divdf3.o)
 .debug_ranges  0x00000000000016e0       0x60 /home/jins/bl_iot_sdk/toolchain/riscv/Linux/bin/../lib/gcc/riscv64-unknown-elf/8.3.0/rv32imf/ilp32f/libgcc.a(eqdf2.o)
 .debug_ranges  0x0000000000001740       0x68 /home/jins/bl_iot_sdk/toolchain/riscv/Linux/bin/../lib/gcc/riscv64-unknown-elf/8.3.0/rv32imf/ilp32f/libgcc.a(gedf2.o)
 .debug_ranges  0x00000000000017a8       0x68 /home/jins/bl_iot_sdk/toolchain/riscv/Linux/bin/../lib/gcc/riscv64-unknown-elf/8.3.0/rv32imf/ilp32f/libgcc.a(ledf2.o)
 .debug_ranges  0x0000000000001810      0x230 /home/jins/bl_iot_sdk/toolchain/riscv/Linux/bin/../lib/gcc/riscv64-unknown-elf/8.3.0/rv32imf/ilp32f/libgcc.a(muldf3.o)
 .debug_ranges  0x0000000000001a40      0x330 /home/jins/bl_iot_sdk/toolchain/riscv/Linux/bin/../lib/gcc/riscv64-unknown-elf/8.3.0/rv32imf/ilp32f/libgcc.a(subdf3.o)
 .debug_ranges  0x0000000000001d70       0x50 /home/jins/bl_iot_sdk/toolchain/riscv/Linux/bin/../lib/gcc/riscv64-unknown-elf/8.3.0/rv32imf/ilp32f/libgcc.a(fixdfsi.o)

.debug_frame    0x0000000000000000     0x27d4
 .debug_frame   0x0000000000000000      0x1e0 /home/jins/bl_iot_sdk/customer_app/tt_app_temperature/build_out/hal_drv/libhal_drv.a(hal_boot2.o)
 .debug_frame   0x00000000000001e0       0x60 /home/jins/bl_iot_sdk/customer_app/tt_app_temperature/build_out/tt_app_temperature/libtt_app_temperature.a(main.o)
 .debug_frame   0x0000000000000240      0x254 /home/jins/bl_iot_sdk/customer_app/tt_app_temperature/build_out/bl602/libbl602.a(debug.o)
 .debug_frame   0x0000000000000494      0x12c /home/jins/bl_iot_sdk/customer_app/tt_app_temperature/build_out/bl602_std/libbl602_std.a(bl602_common.o)
 .debug_frame   0x00000000000005c0      0x300 /home/jins/bl_iot_sdk/customer_app/tt_app_temperature/build_out/bl602_std/libbl602_std.a(platform_device.o)
 .debug_frame   0x00000000000008c0      0x1e8 /home/jins/bl_iot_sdk/customer_app/tt_app_temperature/build_out/bl602_std/libbl602_std.a(interrupt.o)
 .debug_frame   0x0000000000000aa8      0xab0 /home/jins/bl_iot_sdk/customer_app/tt_app_temperature/build_out/bl602_std/libbl602_std.a(bl602_romapi.o)
 .debug_frame   0x0000000000001558      0x274 /home/jins/bl_iot_sdk/customer_app/tt_app_temperature/build_out/bl602_std/libbl602_std.a(bl602_uart.o)
 .debug_frame   0x00000000000017cc      0x574 /home/jins/bl_iot_sdk/customer_app/tt_app_temperature/build_out/bl602_std/libbl602_std.a(bl602_glb.o)
 .debug_frame   0x0000000000001d40      0x48c /home/jins/bl_iot_sdk/customer_app/tt_app_temperature/build_out/bl602_std/libbl602_std.a(bl602_hbn.o)
 .debug_frame   0x00000000000021cc      0x248 /home/jins/bl_iot_sdk/customer_app/tt_app_temperature/build_out/hal_drv/libhal_drv.a(bl_uart.o)
 .debug_frame   0x0000000000002414       0xd4 /home/jins/bl_iot_sdk/customer_app/tt_app_temperature/build_out/hal_drv/libhal_drv.a(bl_sys.o)
 .debug_frame   0x00000000000024e8      0x114 /home/jins/bl_iot_sdk/customer_app/tt_app_temperature/build_out/hal_drv/libhal_drv.a(bl_gpio.o)
 .debug_frame   0x00000000000025fc       0x20 /home/jins/bl_iot_sdk/toolchain/riscv/Linux/bin/../lib/gcc/riscv64-unknown-elf/8.3.0/rv32imf/ilp32f/libgcc.a(_clzsi2.o)
 .debug_frame   0x000000000000261c       0x44 /home/jins/bl_iot_sdk/toolchain/riscv/Linux/bin/../lib/gcc/riscv64-unknown-elf/8.3.0/rv32imf/ilp32f/libgcc.a(adddf3.o)
 .debug_frame   0x0000000000002660       0x58 /home/jins/bl_iot_sdk/toolchain/riscv/Linux/bin/../lib/gcc/riscv64-unknown-elf/8.3.0/rv32imf/ilp32f/libgcc.a(divdf3.o)
 .debug_frame   0x00000000000026b8       0x20 /home/jins/bl_iot_sdk/toolchain/riscv/Linux/bin/../lib/gcc/riscv64-unknown-elf/8.3.0/rv32imf/ilp32f/libgcc.a(eqdf2.o)
 .debug_frame   0x00000000000026d8       0x20 /home/jins/bl_iot_sdk/toolchain/riscv/Linux/bin/../lib/gcc/riscv64-unknown-elf/8.3.0/rv32imf/ilp32f/libgcc.a(gedf2.o)
 .debug_frame   0x00000000000026f8       0x20 /home/jins/bl_iot_sdk/toolchain/riscv/Linux/bin/../lib/gcc/riscv64-unknown-elf/8.3.0/rv32imf/ilp32f/libgcc.a(ledf2.o)
 .debug_frame   0x0000000000002718       0x58 /home/jins/bl_iot_sdk/toolchain/riscv/Linux/bin/../lib/gcc/riscv64-unknown-elf/8.3.0/rv32imf/ilp32f/libgcc.a(muldf3.o)
 .debug_frame   0x0000000000002770       0x44 /home/jins/bl_iot_sdk/toolchain/riscv/Linux/bin/../lib/gcc/riscv64-unknown-elf/8.3.0/rv32imf/ilp32f/libgcc.a(subdf3.o)
 .debug_frame   0x00000000000027b4       0x20 /home/jins/bl_iot_sdk/toolchain/riscv/Linux/bin/../lib/gcc/riscv64-unknown-elf/8.3.0/rv32imf/ilp32f/libgcc.a(fixdfsi.o)

Cross Reference Table

Symbol                                            File
AON_Get_Xtal_CapCode                              /home/jins/bl_iot_sdk/customer_app/tt_app_temperature/build_out/bl602_std/libbl602_std.a(bl602_romapi.o)
AON_LowPower_Enter_PDS0                           /home/jins/bl_iot_sdk/customer_app/tt_app_temperature/build_out/bl602_std/libbl602_std.a(bl602_romapi.o)
AON_LowPower_Exit_PDS0                            /home/jins/bl_iot_sdk/customer_app/tt_app_temperature/build_out/bl602_std/libbl602_std.a(bl602_romapi.o)
AON_Power_Off_BG                                  /home/jins/bl_iot_sdk/customer_app/tt_app_temperature/build_out/bl602_std/libbl602_std.a(bl602_romapi.o)
AON_Power_Off_LDO11_SOC                           /home/jins/bl_iot_sdk/customer_app/tt_app_temperature/build_out/bl602_std/libbl602_std.a(bl602_romapi.o)
AON_Power_Off_LDO15_RF                            /home/jins/bl_iot_sdk/customer_app/tt_app_temperature/build_out/bl602_std/libbl602_std.a(bl602_romapi.o)
AON_Power_Off_MBG                                 /home/jins/bl_iot_sdk/customer_app/tt_app_temperature/build_out/bl602_std/libbl602_std.a(bl602_romapi.o)
AON_Power_Off_SFReg                               /home/jins/bl_iot_sdk/customer_app/tt_app_temperature/build_out/bl602_std/libbl602_std.a(bl602_romapi.o)
AON_Power_Off_XTAL                                /home/jins/bl_iot_sdk/customer_app/tt_app_temperature/build_out/bl602_std/libbl602_std.a(bl602_romapi.o)
AON_Power_On_BG                                   /home/jins/bl_iot_sdk/customer_app/tt_app_temperature/build_out/bl602_std/libbl602_std.a(bl602_romapi.o)
AON_Power_On_LDO11_SOC                            /home/jins/bl_iot_sdk/customer_app/tt_app_temperature/build_out/bl602_std/libbl602_std.a(bl602_romapi.o)
AON_Power_On_LDO15_RF                             /home/jins/bl_iot_sdk/customer_app/tt_app_temperature/build_out/bl602_std/libbl602_std.a(bl602_romapi.o)
AON_Power_On_MBG                                  /home/jins/bl_iot_sdk/customer_app/tt_app_temperature/build_out/bl602_std/libbl602_std.a(bl602_romapi.o)
AON_Power_On_SFReg                                /home/jins/bl_iot_sdk/customer_app/tt_app_temperature/build_out/bl602_std/libbl602_std.a(bl602_romapi.o)
AON_Power_On_XTAL                                 /home/jins/bl_iot_sdk/customer_app/tt_app_temperature/build_out/bl602_std/libbl602_std.a(bl602_romapi.o)
                                                  /home/jins/bl_iot_sdk/customer_app/tt_app_temperature/build_out/bl602_std/libbl602_std.a(bl602_glb.o)
AON_Set_Xtal_CapCode                              /home/jins/bl_iot_sdk/customer_app/tt_app_temperature/build_out/bl602_std/libbl602_std.a(bl602_romapi.o)
ASM_Delay_Us                                      /home/jins/bl_iot_sdk/customer_app/tt_app_temperature/build_out/bl602_std/libbl602_std.a(bl602_romapi.o)
                                                  /home/jins/bl_iot_sdk/customer_app/tt_app_temperature/build_out/bl602_std/libbl602_std.a(bl602_common.o)
BFLB_Soft_CRC16                                   /home/jins/bl_iot_sdk/customer_app/tt_app_temperature/build_out/bl602_std/libbl602_std.a(softcrc.o)
BFLB_Soft_CRC32                                   /home/jins/bl_iot_sdk/customer_app/tt_app_temperature/build_out/bl602_std/libbl602_std.a(bl602_romapi.o)
                                                  /home/jins/bl_iot_sdk/customer_app/tt_app_temperature/build_out/bl602_std/libbl602_std.a(softcrc.o)
                                                  /home/jins/bl_iot_sdk/customer_app/tt_app_temperature/build_out/hal_drv/libhal_drv.a(bl_boot2.o)
BFLB_Soft_CRC32_Table                             /home/jins/bl_iot_sdk/customer_app/tt_app_temperature/build_out/bl602_std/libbl602_std.a(softcrc.o)
BL602_Delay_MS                                    /home/jins/bl_iot_sdk/customer_app/tt_app_temperature/build_out/bl602_std/libbl602_std.a(bl602_romapi.o)
                                                  /home/jins/bl_iot_sdk/customer_app/tt_app_temperature/build_out/bl602_std/libbl602_std.a(bl602_common.o)
                                                  /home/jins/bl_iot_sdk/customer_app/tt_app_temperature/build_out/bl602_std/libbl602_std.a(bl602_hbn.o)
                                                  /home/jins/bl_iot_sdk/customer_app/tt_app_temperature/build_out/tt_app_temperature/libtt_app_temperature.a(main.o)
BL602_Delay_US                                    /home/jins/bl_iot_sdk/customer_app/tt_app_temperature/build_out/bl602_std/libbl602_std.a(bl602_romapi.o)
                                                  /home/jins/bl_iot_sdk/customer_app/tt_app_temperature/build_out/bl602_std/libbl602_std.a(bl602_common.o)
                                                  /home/jins/bl_iot_sdk/customer_app/tt_app_temperature/build_out/bl602_std/libbl602_std.a(bl602_hbn.o)
                                                  /home/jins/bl_iot_sdk/customer_app/tt_app_temperature/build_out/bl602_std/libbl602_std.a(bl602_glb.o)
                                                  /home/jins/bl_iot_sdk/customer_app/tt_app_temperature/build_out/tt_app_temperature/libtt_app_temperature.a(main.o)
BL602_MemCmp                                      /home/jins/bl_iot_sdk/customer_app/tt_app_temperature/build_out/bl602_std/libbl602_std.a(bl602_romapi.o)
                                                  /home/jins/bl_iot_sdk/customer_app/tt_app_temperature/build_out/bl602_std/libbl602_std.a(bl602_common.o)
BL602_MemCpy                                      /home/jins/bl_iot_sdk/customer_app/tt_app_temperature/build_out/bl602_std/libbl602_std.a(bl602_romapi.o)
                                                  /home/jins/bl_iot_sdk/customer_app/tt_app_temperature/build_out/bl602_std/libbl602_std.a(bl602_common.o)
BL602_MemCpy4                                     /home/jins/bl_iot_sdk/customer_app/tt_app_temperature/build_out/bl602_std/libbl602_std.a(bl602_romapi.o)
                                                  /home/jins/bl_iot_sdk/customer_app/tt_app_temperature/build_out/bl602_std/libbl602_std.a(bl602_common.o)
BL602_MemCpy_Fast                                 /home/jins/bl_iot_sdk/customer_app/tt_app_temperature/build_out/bl602_std/libbl602_std.a(bl602_romapi.o)
                                                  /home/jins/bl_iot_sdk/customer_app/tt_app_temperature/build_out/bl602_std/libbl602_std.a(bl602_common.o)
                                                  /home/jins/bl_iot_sdk/customer_app/tt_app_temperature/build_out/bl602_std/libbl602_std.a(bl602_sec_eng.o)
                                                  /home/jins/bl_iot_sdk/customer_app/tt_app_temperature/build_out/bl602_std/libbl602_std.a(ring_buffer.o)
BL602_MemSet                                      /home/jins/bl_iot_sdk/customer_app/tt_app_temperature/build_out/bl602_std/libbl602_std.a(bl602_romapi.o)
                                                  /home/jins/bl_iot_sdk/customer_app/tt_app_temperature/build_out/bl602_std/libbl602_std.a(bl602_common.o)
                                                  /home/jins/bl_iot_sdk/customer_app/tt_app_temperature/build_out/bl602_std/libbl602_std.a(bl602_sec_eng.o)
BL602_MemSet4                                     /home/jins/bl_iot_sdk/customer_app/tt_app_temperature/build_out/bl602_std/libbl602_std.a(bl602_romapi.o)
                                                  /home/jins/bl_iot_sdk/customer_app/tt_app_temperature/build_out/bl602_std/libbl602_std.a(bl602_common.o)
BLE_IRQHandler                                    /home/jins/bl_iot_sdk/customer_app/tt_app_temperature/build_out/bl602_std/libbl602_std.a(interrupt.o)
BMX_ERR_INT_Callback_Install                      /home/jins/bl_iot_sdk/customer_app/tt_app_temperature/build_out/bl602_std/libbl602_std.a(bl602_glb.o)
BMX_ERR_IRQHandler                                /home/jins/bl_iot_sdk/customer_app/tt_app_temperature/build_out/bl602_std/libbl602_std.a(interrupt.o)
BMX_TIMEOUT_INT_Callback_Install                  /home/jins/bl_iot_sdk/customer_app/tt_app_temperature/build_out/bl602_std/libbl602_std.a(bl602_glb.o)
BMX_TO_IRQHandler                                 /home/jins/bl_iot_sdk/customer_app/tt_app_temperature/build_out/bl602_std/libbl602_std.a(interrupt.o)
BOR_IRQHandler                                    /home/jins/bl_iot_sdk/customer_app/tt_app_temperature/build_out/bl602_std/libbl602_std.a(interrupt.o)
BZ_PHY_IRQHandler                                 /home/jins/bl_iot_sdk/customer_app/tt_app_temperature/build_out/bl602_std/libbl602_std.a(interrupt.o)
DMA_ALL_IRQHandler                                /home/jins/bl_iot_sdk/customer_app/tt_app_temperature/build_out/bl602_std/libbl602_std.a(interrupt.o)
DMA_BMX_ERR_IRQHandler                            /home/jins/bl_iot_sdk/customer_app/tt_app_temperature/build_out/bl602_std/libbl602_std.a(interrupt.o)
Default_Handler                                   /home/jins/bl_iot_sdk/customer_app/tt_app_temperature/build_out/bl602_std/libbl602_std.a(bl602_common.o)
                                                  /home/jins/bl_iot_sdk/customer_app/tt_app_temperature/build_out/bl602_std/libbl602_std.a(interrupt.o)
Default_Handler_Stub                              /home/jins/bl_iot_sdk/customer_app/tt_app_temperature/build_out/bl602_std/libbl602_std.a(interrupt.o)
EFUSE_IRQHandler                                  /home/jins/bl_iot_sdk/customer_app/tt_app_temperature/build_out/bl602_std/libbl602_std.a(interrupt.o)
EF_Ctrl_AutoLoad_Done                             /home/jins/bl_iot_sdk/customer_app/tt_app_temperature/build_out/bl602_std/libbl602_std.a(bl602_romapi.o)
EF_Ctrl_Busy                                      /home/jins/bl_iot_sdk/customer_app/tt_app_temperature/build_out/bl602_std/libbl602_std.a(bl602_romapi.o)
EF_Ctrl_Clear                                     /home/jins/bl_iot_sdk/customer_app/tt_app_temperature/build_out/bl602_std/libbl602_std.a(bl602_romapi.o)
EF_Ctrl_Get_Trim_Parity                           /home/jins/bl_iot_sdk/customer_app/tt_app_temperature/build_out/bl602_std/libbl602_std.a(bl602_romapi.o)
                                                  /home/jins/bl_iot_sdk/customer_app/tt_app_temperature/build_out/bl602_std/libbl602_std.a(bl602_hbn.o)
EF_Ctrl_Load_Efuse_R0                             /home/jins/bl_iot_sdk/customer_app/tt_app_temperature/build_out/bl602_std/libbl602_std.a(bl602_romapi.o)
EF_Ctrl_Program_Efuse_0                           /home/jins/bl_iot_sdk/customer_app/tt_app_temperature/build_out/bl602_std/libbl602_std.a(bl602_romapi.o)
EF_Ctrl_Read_RC32K_Trim                           /home/jins/bl_iot_sdk/customer_app/tt_app_temperature/build_out/bl602_std/libbl602_std.a(bl602_romapi.o)
                                                  /home/jins/bl_iot_sdk/customer_app/tt_app_temperature/build_out/bl602_std/libbl602_std.a(bl602_hbn.o)
EF_Ctrl_Read_RC32M_Trim                           /home/jins/bl_iot_sdk/customer_app/tt_app_temperature/build_out/bl602_std/libbl602_std.a(bl602_romapi.o)
EF_Ctrl_Sw_AHB_Clk_0                              /home/jins/bl_iot_sdk/customer_app/tt_app_temperature/build_out/bl602_std/libbl602_std.a(bl602_romapi.o)
GLB_AHB_Slave1_Clock_Gate                         /home/jins/bl_iot_sdk/customer_app/tt_app_temperature/build_out/bl602_std/libbl602_std.a(bl602_glb.o)
GLB_AHB_Slave1_Reset                              /home/jins/bl_iot_sdk/customer_app/tt_app_temperature/build_out/bl602_std/libbl602_std.a(bl602_glb.o)
                                                  /home/jins/bl_iot_sdk/customer_app/tt_app_temperature/build_out/bl602_std/libbl602_std.a(bl602_uart.o)
                                                  /home/jins/bl_iot_sdk/customer_app/tt_app_temperature/build_out/bl602_std/libbl602_std.a(platform_device.o)
GLB_BMX_Addr_Monitor_Disable                      /home/jins/bl_iot_sdk/customer_app/tt_app_temperature/build_out/bl602_std/libbl602_std.a(bl602_glb.o)
GLB_BMX_Addr_Monitor_Enable                       /home/jins/bl_iot_sdk/customer_app/tt_app_temperature/build_out/bl602_std/libbl602_std.a(bl602_glb.o)
GLB_BMX_BusErrResponse_Disable                    /home/jins/bl_iot_sdk/customer_app/tt_app_temperature/build_out/bl602_std/libbl602_std.a(bl602_glb.o)
GLB_BMX_BusErrResponse_Enable                     /home/jins/bl_iot_sdk/customer_app/tt_app_temperature/build_out/bl602_std/libbl602_std.a(bl602_glb.o)
GLB_BMX_Get_Err_Addr                              /home/jins/bl_iot_sdk/customer_app/tt_app_temperature/build_out/bl602_std/libbl602_std.a(bl602_glb.o)
GLB_BMX_Get_Status                                /home/jins/bl_iot_sdk/customer_app/tt_app_temperature/build_out/bl602_std/libbl602_std.a(bl602_glb.o)
GLB_BMX_Init                                      /home/jins/bl_iot_sdk/customer_app/tt_app_temperature/build_out/bl602_std/libbl602_std.a(bl602_glb.o)
GLB_Clr_GPIO_IntStatus                            /home/jins/bl_iot_sdk/customer_app/tt_app_temperature/build_out/bl602_std/libbl602_std.a(bl602_glb.o)
GLB_Deswap_Flash_Pin                              /home/jins/bl_iot_sdk/customer_app/tt_app_temperature/build_out/bl602_std/libbl602_std.a(bl602_romapi.o)
GLB_GPIO_Func_Init                                /home/jins/bl_iot_sdk/customer_app/tt_app_temperature/build_out/bl602_std/libbl602_std.a(bl602_glb.o)
GLB_GPIO_Get_Fun                                  /home/jins/bl_iot_sdk/customer_app/tt_app_temperature/build_out/bl602_std/libbl602_std.a(bl602_romapi.o)
GLB_GPIO_Get_Real_Fun                             /home/jins/bl_iot_sdk/customer_app/tt_app_temperature/build_out/bl602_std/libbl602_std.a(bl602_glb.o)
GLB_GPIO_INPUT_Disable                            /home/jins/bl_iot_sdk/customer_app/tt_app_temperature/build_out/bl602_std/libbl602_std.a(bl602_glb.o)
GLB_GPIO_INPUT_Enable                             /home/jins/bl_iot_sdk/customer_app/tt_app_temperature/build_out/bl602_std/libbl602_std.a(bl602_glb.o)
GLB_GPIO_INT0_Callback_Install                    /home/jins/bl_iot_sdk/customer_app/tt_app_temperature/build_out/bl602_std/libbl602_std.a(bl602_glb.o)
GLB_GPIO_Init                                     /home/jins/bl_iot_sdk/customer_app/tt_app_temperature/build_out/bl602_std/libbl602_std.a(bl602_romapi.o)
                                                  /home/jins/bl_iot_sdk/customer_app/tt_app_temperature/build_out/hal_drv/libhal_drv.a(bl_gpio.o)
                                                  /home/jins/bl_iot_sdk/customer_app/tt_app_temperature/build_out/hal_drv/libhal_drv.a(bl_uart.o)
                                                  /home/jins/bl_iot_sdk/customer_app/tt_app_temperature/build_out/bl602_std/libbl602_std.a(platform_gpio.o)
GLB_GPIO_IntClear                                 /home/jins/bl_iot_sdk/customer_app/tt_app_temperature/build_out/bl602_std/libbl602_std.a(bl602_glb.o)
GLB_GPIO_IntMask                                  /home/jins/bl_iot_sdk/customer_app/tt_app_temperature/build_out/bl602_std/libbl602_std.a(bl602_glb.o)
                                                  /home/jins/bl_iot_sdk/customer_app/tt_app_temperature/build_out/hal_drv/libhal_drv.a(bl_gpio.o)
GLB_GPIO_OUTPUT_Disable                           /home/jins/bl_iot_sdk/customer_app/tt_app_temperature/build_out/bl602_std/libbl602_std.a(bl602_romapi.o)
GLB_GPIO_OUTPUT_Enable                            /home/jins/bl_iot_sdk/customer_app/tt_app_temperature/build_out/bl602_std/libbl602_std.a(bl602_romapi.o)
GLB_GPIO_Read                                     /home/jins/bl_iot_sdk/customer_app/tt_app_temperature/build_out/bl602_std/libbl602_std.a(bl602_glb.o)
                                                  /home/jins/bl_iot_sdk/customer_app/tt_app_temperature/build_out/hal_drv/libhal_drv.a(bl_gpio.o)
GLB_GPIO_Set_HZ                                   /home/jins/bl_iot_sdk/customer_app/tt_app_temperature/build_out/bl602_std/libbl602_std.a(bl602_romapi.o)
GLB_GPIO_Write                                    /home/jins/bl_iot_sdk/customer_app/tt_app_temperature/build_out/bl602_std/libbl602_std.a(bl602_glb.o)
                                                  /home/jins/bl_iot_sdk/customer_app/tt_app_temperature/build_out/hal_drv/libhal_drv.a(bl_gpio.o)
GLB_Get_BCLK_Div                                  /home/jins/bl_iot_sdk/customer_app/tt_app_temperature/build_out/bl602_std/libbl602_std.a(bl602_romapi.o)
                                                  /home/jins/bl_iot_sdk/customer_app/tt_app_temperature/build_out/bl602_std/libbl602_std.a(platform_device.o)
GLB_Get_GPIO_IntCtlMod                            /home/jins/bl_iot_sdk/customer_app/tt_app_temperature/build_out/bl602_std/libbl602_std.a(bl602_glb.o)
GLB_Get_GPIO_IntStatus                            /home/jins/bl_iot_sdk/customer_app/tt_app_temperature/build_out/bl602_std/libbl602_std.a(bl602_glb.o)
GLB_Get_HCLK_Div                                  /home/jins/bl_iot_sdk/customer_app/tt_app_temperature/build_out/bl602_std/libbl602_std.a(bl602_romapi.o)
GLB_Get_Root_CLK_Sel                              /home/jins/bl_iot_sdk/customer_app/tt_app_temperature/build_out/bl602_std/libbl602_std.a(bl602_romapi.o)
GLB_Get_SRAM_PARM                                 /home/jins/bl_iot_sdk/customer_app/tt_app_temperature/build_out/bl602_std/libbl602_std.a(bl602_glb.o)
GLB_Get_SRAM_RET                                  /home/jins/bl_iot_sdk/customer_app/tt_app_temperature/build_out/bl602_std/libbl602_std.a(bl602_glb.o)
GLB_Get_SRAM_SLP                                  /home/jins/bl_iot_sdk/customer_app/tt_app_temperature/build_out/bl602_std/libbl602_std.a(bl602_glb.o)
GLB_IR_LED_Driver_Disable                         /home/jins/bl_iot_sdk/customer_app/tt_app_temperature/build_out/bl602_std/libbl602_std.a(bl602_glb.o)
GLB_IR_LED_Driver_Enable                          /home/jins/bl_iot_sdk/customer_app/tt_app_temperature/build_out/bl602_std/libbl602_std.a(bl602_glb.o)
GLB_IR_LED_Driver_Ibias                           /home/jins/bl_iot_sdk/customer_app/tt_app_temperature/build_out/bl602_std/libbl602_std.a(bl602_glb.o)
GLB_IR_RX_GPIO_Sel                                /home/jins/bl_iot_sdk/customer_app/tt_app_temperature/build_out/bl602_std/libbl602_std.a(bl602_glb.o)
GLB_JTAG_Sig_Swap_Set                             /home/jins/bl_iot_sdk/customer_app/tt_app_temperature/build_out/bl602_std/libbl602_std.a(bl602_glb.o)
GLB_Platform_Wakeup_Disable                       /home/jins/bl_iot_sdk/customer_app/tt_app_temperature/build_out/bl602_std/libbl602_std.a(bl602_glb.o)
GLB_Platform_Wakeup_Enable                        /home/jins/bl_iot_sdk/customer_app/tt_app_temperature/build_out/bl602_std/libbl602_std.a(bl602_glb.o)
GLB_SW_CPU_Reset                                  /home/jins/bl_iot_sdk/customer_app/tt_app_temperature/build_out/bl602_std/libbl602_std.a(bl602_romapi.o)
GLB_SW_POR_Reset                                  /home/jins/bl_iot_sdk/customer_app/tt_app_temperature/build_out/bl602_std/libbl602_std.a(bl602_romapi.o)
                                                  /home/jins/bl_iot_sdk/customer_app/tt_app_temperature/build_out/hal_drv/libhal_drv.a(bl_sys.o)
GLB_SW_System_Reset                               /home/jins/bl_iot_sdk/customer_app/tt_app_temperature/build_out/bl602_std/libbl602_std.a(bl602_romapi.o)
                                                  /home/jins/bl_iot_sdk/customer_app/tt_app_temperature/build_out/hal_drv/libhal_drv.a(bl_sys.o)
GLB_Select_External_Flash                         /home/jins/bl_iot_sdk/customer_app/tt_app_temperature/build_out/bl602_std/libbl602_std.a(bl602_romapi.o)
GLB_Select_Internal_Flash                         /home/jins/bl_iot_sdk/customer_app/tt_app_temperature/build_out/bl602_std/libbl602_std.a(bl602_romapi.o)
GLB_Set_ADC_CLK                                   /home/jins/bl_iot_sdk/customer_app/tt_app_temperature/build_out/bl602_std/libbl602_std.a(bl602_glb.o)
GLB_Set_BLE_CLK                                   /home/jins/bl_iot_sdk/customer_app/tt_app_temperature/build_out/bl602_std/libbl602_std.a(bl602_glb.o)
GLB_Set_BT_Coex_Signal                            /home/jins/bl_iot_sdk/customer_app/tt_app_temperature/build_out/bl602_std/libbl602_std.a(bl602_glb.o)
GLB_Set_DAC_CLK                                   /home/jins/bl_iot_sdk/customer_app/tt_app_temperature/build_out/bl602_std/libbl602_std.a(bl602_glb.o)
GLB_Set_DIG_32K_CLK                               /home/jins/bl_iot_sdk/customer_app/tt_app_temperature/build_out/bl602_std/libbl602_std.a(bl602_glb.o)
GLB_Set_DIG_512K_CLK                              /home/jins/bl_iot_sdk/customer_app/tt_app_temperature/build_out/bl602_std/libbl602_std.a(bl602_glb.o)
GLB_Set_DIG_CLK_Sel                               /home/jins/bl_iot_sdk/customer_app/tt_app_temperature/build_out/bl602_std/libbl602_std.a(bl602_glb.o)
GLB_Set_DMA_CLK                                   /home/jins/bl_iot_sdk/customer_app/tt_app_temperature/build_out/bl602_std/libbl602_std.a(bl602_glb.o)
GLB_Set_EM_Sel                                    /home/jins/bl_iot_sdk/customer_app/tt_app_temperature/build_out/bl602_std/libbl602_std.a(bl602_glb.o)
                                                  /home/jins/bl_iot_sdk/customer_app/tt_app_temperature/build_out/hal_drv/libhal_drv.a(bl_sys.o)
GLB_Set_GPIO_IntMod                               /home/jins/bl_iot_sdk/customer_app/tt_app_temperature/build_out/bl602_std/libbl602_std.a(bl602_glb.o)
                                                  /home/jins/bl_iot_sdk/customer_app/tt_app_temperature/build_out/hal_drv/libhal_drv.a(bl_gpio.o)
GLB_Set_I2C_CLK                                   /home/jins/bl_iot_sdk/customer_app/tt_app_temperature/build_out/bl602_std/libbl602_std.a(bl602_glb.o)
GLB_Set_IR_CLK                                    /home/jins/bl_iot_sdk/customer_app/tt_app_temperature/build_out/bl602_std/libbl602_std.a(bl602_glb.o)
GLB_Set_MTimer_CLK                                /home/jins/bl_iot_sdk/customer_app/tt_app_temperature/build_out/bl602_std/libbl602_std.a(bl602_glb.o)
                                                  /home/jins/bl_iot_sdk/customer_app/tt_app_temperature/build_out/bl602_std/libbl602_std.a(platform_device.o)
GLB_Set_PKA_CLK_Sel                               /home/jins/bl_iot_sdk/customer_app/tt_app_temperature/build_out/bl602_std/libbl602_std.a(bl602_romapi.o)
GLB_Set_SF_CLK                                    /home/jins/bl_iot_sdk/customer_app/tt_app_temperature/build_out/bl602_std/libbl602_std.a(bl602_romapi.o)
GLB_Set_SPI_0_ACT_MOD_Sel                         /home/jins/bl_iot_sdk/customer_app/tt_app_temperature/build_out/bl602_std/libbl602_std.a(bl602_glb.o)
GLB_Set_SPI_CLK                                   /home/jins/bl_iot_sdk/customer_app/tt_app_temperature/build_out/bl602_std/libbl602_std.a(bl602_glb.o)
GLB_Set_SRAM_PARM                                 /home/jins/bl_iot_sdk/customer_app/tt_app_temperature/build_out/bl602_std/libbl602_std.a(bl602_glb.o)
GLB_Set_SRAM_RET                                  /home/jins/bl_iot_sdk/customer_app/tt_app_temperature/build_out/bl602_std/libbl602_std.a(bl602_glb.o)
GLB_Set_SRAM_SLP                                  /home/jins/bl_iot_sdk/customer_app/tt_app_temperature/build_out/bl602_std/libbl602_std.a(bl602_glb.o)
GLB_Set_System_CLK                                /home/jins/bl_iot_sdk/customer_app/tt_app_temperature/build_out/bl602_std/libbl602_std.a(bl602_romapi.o)
                                                  /home/jins/bl_iot_sdk/customer_app/tt_app_temperature/build_out/bl602_std/libbl602_std.a(bl602_hbn.o)
GLB_Set_System_CLK_Div                            /home/jins/bl_iot_sdk/customer_app/tt_app_temperature/build_out/bl602_std/libbl602_std.a(bl602_romapi.o)
GLB_Set_UART_CLK                                  /home/jins/bl_iot_sdk/customer_app/tt_app_temperature/build_out/bl602_std/libbl602_std.a(bl602_glb.o)
                                                  /home/jins/bl_iot_sdk/customer_app/tt_app_temperature/build_out/hal_drv/libhal_drv.a(bl_uart.o)
                                                  /home/jins/bl_iot_sdk/customer_app/tt_app_temperature/build_out/bl602_std/libbl602_std.a(platform_device.o)
GLB_Set_WiFi_Core_CLK                             /home/jins/bl_iot_sdk/customer_app/tt_app_temperature/build_out/bl602_std/libbl602_std.a(bl602_glb.o)
GLB_Set_WiFi_Encrypt_CLK                          /home/jins/bl_iot_sdk/customer_app/tt_app_temperature/build_out/bl602_std/libbl602_std.a(bl602_glb.o)
GLB_Swap_Flash_Pin                                /home/jins/bl_iot_sdk/customer_app/tt_app_temperature/build_out/bl602_std/libbl602_std.a(bl602_romapi.o)
GLB_Swap_SPI_0_MOSI_With_MISO                     /home/jins/bl_iot_sdk/customer_app/tt_app_temperature/build_out/bl602_std/libbl602_std.a(bl602_glb.o)
GLB_UART_Fun_Sel                                  /home/jins/bl_iot_sdk/customer_app/tt_app_temperature/build_out/bl602_std/libbl602_std.a(bl602_glb.o)
                                                  /home/jins/bl_iot_sdk/customer_app/tt_app_temperature/build_out/hal_drv/libhal_drv.a(bl_uart.o)
                                                  /home/jins/bl_iot_sdk/customer_app/tt_app_temperature/build_out/bl602_std/libbl602_std.a(platform_gpio.o)
GLB_UART_Sig_Swap_Set                             /home/jins/bl_iot_sdk/customer_app/tt_app_temperature/build_out/bl602_std/libbl602_std.a(bl602_glb.o)
                                                  /home/jins/bl_iot_sdk/customer_app/tt_app_temperature/build_out/bl602_std/libbl602_std.a(platform_gpio.o)
GPADC_DMA_IRQHandler                              /home/jins/bl_iot_sdk/customer_app/tt_app_temperature/build_out/bl602_std/libbl602_std.a(interrupt.o)
GPIO_INT0_IRQHandler                              /home/jins/bl_iot_sdk/customer_app/tt_app_temperature/build_out/bl602_std/libbl602_std.a(interrupt.o)
HBN_32K_Sel                                       /home/jins/bl_iot_sdk/customer_app/tt_app_temperature/build_out/bl602_std/libbl602_std.a(bl602_romapi.o)
                                                  /home/jins/bl_iot_sdk/customer_app/tt_app_temperature/build_out/hal_drv/libhal_drv.a(bl_rtc.o)
HBN_Aon_Pad_IeSmt_Cfg                             /home/jins/bl_iot_sdk/customer_app/tt_app_temperature/build_out/bl602_std/libbl602_std.a(bl602_hbn.o)
                                                  /home/jins/bl_iot_sdk/customer_app/tt_app_temperature/build_out/hal_drv/libhal_drv.a(bl_sys.o)
HBN_App_Reset                                     /home/jins/bl_iot_sdk/customer_app/tt_app_temperature/build_out/bl602_std/libbl602_std.a(bl602_hbn.o)
HBN_Clear_IRQ                                     /home/jins/bl_iot_sdk/customer_app/tt_app_temperature/build_out/bl602_std/libbl602_std.a(bl602_hbn.o)
HBN_Clear_RTC_Counter                             /home/jins/bl_iot_sdk/customer_app/tt_app_temperature/build_out/bl602_std/libbl602_std.a(bl602_hbn.o)
                                                  /home/jins/bl_iot_sdk/customer_app/tt_app_temperature/build_out/hal_drv/libhal_drv.a(bl_rtc.o)
HBN_Clear_RTC_INT                                 /home/jins/bl_iot_sdk/customer_app/tt_app_temperature/build_out/bl602_std/libbl602_std.a(bl602_hbn.o)
HBN_Disable                                       /home/jins/bl_iot_sdk/customer_app/tt_app_temperature/build_out/bl602_std/libbl602_std.a(bl602_hbn.o)
HBN_Disable_AComp0_IRQ                            /home/jins/bl_iot_sdk/customer_app/tt_app_temperature/build_out/bl602_std/libbl602_std.a(bl602_hbn.o)
HBN_Disable_AComp1_IRQ                            /home/jins/bl_iot_sdk/customer_app/tt_app_temperature/build_out/bl602_std/libbl602_std.a(bl602_hbn.o)
HBN_Disable_BOR_IRQ                               /home/jins/bl_iot_sdk/customer_app/tt_app_temperature/build_out/bl602_std/libbl602_std.a(bl602_hbn.o)
HBN_Enable                                        /home/jins/bl_iot_sdk/customer_app/tt_app_temperature/build_out/bl602_std/libbl602_std.a(bl602_romapi.o)
HBN_Enable_AComp0_IRQ                             /home/jins/bl_iot_sdk/customer_app/tt_app_temperature/build_out/bl602_std/libbl602_std.a(bl602_hbn.o)
HBN_Enable_AComp1_IRQ                             /home/jins/bl_iot_sdk/customer_app/tt_app_temperature/build_out/bl602_std/libbl602_std.a(bl602_hbn.o)
HBN_Enable_BOR_IRQ                                /home/jins/bl_iot_sdk/customer_app/tt_app_temperature/build_out/bl602_std/libbl602_std.a(bl602_hbn.o)
HBN_Enable_RTC_Counter                            /home/jins/bl_iot_sdk/customer_app/tt_app_temperature/build_out/bl602_std/libbl602_std.a(bl602_hbn.o)
                                                  /home/jins/bl_iot_sdk/customer_app/tt_app_temperature/build_out/hal_drv/libhal_drv.a(bl_rtc.o)
HBN_GPIO7_Dbg_Pull_Cfg                            /home/jins/bl_iot_sdk/customer_app/tt_app_temperature/build_out/bl602_std/libbl602_std.a(bl602_romapi.o)
HBN_GPIO_INT_Disable                              /home/jins/bl_iot_sdk/customer_app/tt_app_temperature/build_out/bl602_std/libbl602_std.a(bl602_hbn.o)
HBN_GPIO_INT_Enable                               /home/jins/bl_iot_sdk/customer_app/tt_app_temperature/build_out/bl602_std/libbl602_std.a(bl602_hbn.o)
HBN_Get_BOR_OUT_State                             /home/jins/bl_iot_sdk/customer_app/tt_app_temperature/build_out/bl602_std/libbl602_std.a(bl602_hbn.o)
HBN_Get_INT_State                                 /home/jins/bl_iot_sdk/customer_app/tt_app_temperature/build_out/bl602_std/libbl602_std.a(bl602_hbn.o)
HBN_Get_PIR_Interval                              /home/jins/bl_iot_sdk/customer_app/tt_app_temperature/build_out/bl602_std/libbl602_std.a(bl602_hbn.o)
HBN_Get_PIR_Threshold                             /home/jins/bl_iot_sdk/customer_app/tt_app_temperature/build_out/bl602_std/libbl602_std.a(bl602_hbn.o)
HBN_Get_Pin_Wakeup_Mode                           /home/jins/bl_iot_sdk/customer_app/tt_app_temperature/build_out/bl602_std/libbl602_std.a(bl602_hbn.o)
HBN_Get_RTC_Timer_Val                             /home/jins/bl_iot_sdk/customer_app/tt_app_temperature/build_out/bl602_std/libbl602_std.a(bl602_hbn.o)
                                                  /home/jins/bl_iot_sdk/customer_app/tt_app_temperature/build_out/hal_drv/libhal_drv.a(bl_rtc.o)
HBN_Get_Status_Flag                               /home/jins/bl_iot_sdk/customer_app/tt_app_temperature/build_out/bl602_std/libbl602_std.a(bl602_hbn.o)
HBN_Get_Wakeup_Addr                               /home/jins/bl_iot_sdk/customer_app/tt_app_temperature/build_out/bl602_std/libbl602_std.a(bl602_hbn.o)
HBN_Hw_Pu_Pd_Cfg                                  /home/jins/bl_iot_sdk/customer_app/tt_app_temperature/build_out/bl602_std/libbl602_std.a(bl602_romapi.o)
HBN_Mode_Enter                                    /home/jins/bl_iot_sdk/customer_app/tt_app_temperature/build_out/bl602_std/libbl602_std.a(bl602_romapi.o)
HBN_OUT0_IRQHandler                               /home/jins/bl_iot_sdk/customer_app/tt_app_temperature/build_out/bl602_std/libbl602_std.a(interrupt.o)
HBN_OUT1_IRQHandler                               /home/jins/bl_iot_sdk/customer_app/tt_app_temperature/build_out/bl602_std/libbl602_std.a(interrupt.o)
HBN_Out0_Callback_Install                         /home/jins/bl_iot_sdk/customer_app/tt_app_temperature/build_out/bl602_std/libbl602_std.a(bl602_hbn.o)
HBN_Out1_Callback_Install                         /home/jins/bl_iot_sdk/customer_app/tt_app_temperature/build_out/bl602_std/libbl602_std.a(bl602_hbn.o)
HBN_PIR_Disable                                   /home/jins/bl_iot_sdk/customer_app/tt_app_temperature/build_out/bl602_std/libbl602_std.a(bl602_hbn.o)
HBN_PIR_Enable                                    /home/jins/bl_iot_sdk/customer_app/tt_app_temperature/build_out/bl602_std/libbl602_std.a(bl602_hbn.o)
HBN_PIR_HPF_Sel                                   /home/jins/bl_iot_sdk/customer_app/tt_app_temperature/build_out/bl602_std/libbl602_std.a(bl602_hbn.o)
HBN_PIR_INT_Config                                /home/jins/bl_iot_sdk/customer_app/tt_app_temperature/build_out/bl602_std/libbl602_std.a(bl602_hbn.o)
HBN_PIR_LPF_Sel                                   /home/jins/bl_iot_sdk/customer_app/tt_app_temperature/build_out/bl602_std/libbl602_std.a(bl602_hbn.o)
HBN_Pin_WakeUp_Mask                               /home/jins/bl_iot_sdk/customer_app/tt_app_temperature/build_out/bl602_std/libbl602_std.a(bl602_romapi.o)
HBN_Power_Down_Flash                              /home/jins/bl_iot_sdk/customer_app/tt_app_temperature/build_out/bl602_std/libbl602_std.a(bl602_romapi.o)
HBN_Power_Off_RC32K                               /home/jins/bl_iot_sdk/customer_app/tt_app_temperature/build_out/bl602_std/libbl602_std.a(bl602_romapi.o)
HBN_Power_Off_Xtal_32K                            /home/jins/bl_iot_sdk/customer_app/tt_app_temperature/build_out/bl602_std/libbl602_std.a(bl602_romapi.o)
HBN_Power_On_RC32K                                /home/jins/bl_iot_sdk/customer_app/tt_app_temperature/build_out/bl602_std/libbl602_std.a(bl602_romapi.o)
HBN_Power_On_Xtal_32K                             /home/jins/bl_iot_sdk/customer_app/tt_app_temperature/build_out/bl602_std/libbl602_std.a(bl602_romapi.o)
HBN_Reset                                         /home/jins/bl_iot_sdk/customer_app/tt_app_temperature/build_out/bl602_std/libbl602_std.a(bl602_romapi.o)
HBN_Set_BOR_Cfg                                   /home/jins/bl_iot_sdk/customer_app/tt_app_temperature/build_out/bl602_std/libbl602_std.a(bl602_hbn.o)
HBN_Set_BOR_Config                                /home/jins/bl_iot_sdk/customer_app/tt_app_temperature/build_out/bl602_std/libbl602_std.a(bl602_hbn.o)
HBN_Set_Embedded_Flash_Pullup                     /home/jins/bl_iot_sdk/customer_app/tt_app_temperature/build_out/bl602_std/libbl602_std.a(bl602_romapi.o)
HBN_Set_HRAM_Ret                                  /home/jins/bl_iot_sdk/customer_app/tt_app_temperature/build_out/bl602_std/libbl602_std.a(bl602_hbn.o)
HBN_Set_HRAM_slp                                  /home/jins/bl_iot_sdk/customer_app/tt_app_temperature/build_out/bl602_std/libbl602_std.a(bl602_hbn.o)
HBN_Set_Ldo11_All_Vout                            /home/jins/bl_iot_sdk/customer_app/tt_app_temperature/build_out/bl602_std/libbl602_std.a(bl602_hbn.o)
HBN_Set_Ldo11_Aon_Vout                            /home/jins/bl_iot_sdk/customer_app/tt_app_temperature/build_out/bl602_std/libbl602_std.a(bl602_romapi.o)
HBN_Set_Ldo11_Rt_Vout                             /home/jins/bl_iot_sdk/customer_app/tt_app_temperature/build_out/bl602_std/libbl602_std.a(bl602_romapi.o)
HBN_Set_Ldo11_Soc_Vout                            /home/jins/bl_iot_sdk/customer_app/tt_app_temperature/build_out/bl602_std/libbl602_std.a(bl602_romapi.o)
HBN_Set_PIR_Interval                              /home/jins/bl_iot_sdk/customer_app/tt_app_temperature/build_out/bl602_std/libbl602_std.a(bl602_hbn.o)
HBN_Set_PIR_Threshold                             /home/jins/bl_iot_sdk/customer_app/tt_app_temperature/build_out/bl602_std/libbl602_std.a(bl602_hbn.o)
HBN_Set_ROOT_CLK_Sel                              /home/jins/bl_iot_sdk/customer_app/tt_app_temperature/build_out/bl602_std/libbl602_std.a(bl602_romapi.o)
                                                  /home/jins/bl_iot_sdk/customer_app/tt_app_temperature/build_out/bl602_std/libbl602_std.a(bl602_glb.o)
HBN_Set_RTC_Timer                                 /home/jins/bl_iot_sdk/customer_app/tt_app_temperature/build_out/bl602_std/libbl602_std.a(bl602_hbn.o)
HBN_Set_Status_Flag                               /home/jins/bl_iot_sdk/customer_app/tt_app_temperature/build_out/bl602_std/libbl602_std.a(bl602_hbn.o)
HBN_Set_UART_CLK_Sel                              /home/jins/bl_iot_sdk/customer_app/tt_app_temperature/build_out/bl602_std/libbl602_std.a(bl602_hbn.o)
                                                  /home/jins/bl_iot_sdk/customer_app/tt_app_temperature/build_out/bl602_std/libbl602_std.a(bl602_glb.o)
HBN_Set_Wakeup_Addr                               /home/jins/bl_iot_sdk/customer_app/tt_app_temperature/build_out/bl602_std/libbl602_std.a(bl602_hbn.o)
HBN_Set_XCLK_CLK_Sel                              /home/jins/bl_iot_sdk/customer_app/tt_app_temperature/build_out/bl602_std/libbl602_std.a(bl602_hbn.o)
HBN_Trim_RC32K                                    /home/jins/bl_iot_sdk/customer_app/tt_app_temperature/build_out/bl602_std/libbl602_std.a(bl602_romapi.o)
I2C_IRQHandler                                    /home/jins/bl_iot_sdk/customer_app/tt_app_temperature/build_out/bl602_std/libbl602_std.a(interrupt.o)
IRRX_IRQHandler                                   /home/jins/bl_iot_sdk/customer_app/tt_app_temperature/build_out/bl602_std/libbl602_std.a(interrupt.o)
IRTX_IRQHandler                                   /home/jins/bl_iot_sdk/customer_app/tt_app_temperature/build_out/bl602_std/libbl602_std.a(interrupt.o)
L1C_BMX_ERR_IRQHandler                            /home/jins/bl_iot_sdk/customer_app/tt_app_temperature/build_out/bl602_std/libbl602_std.a(interrupt.o)
L1C_BMX_TO_IRQHandler                             /home/jins/bl_iot_sdk/customer_app/tt_app_temperature/build_out/bl602_std/libbl602_std.a(interrupt.o)
L1C_IROM_2T_Access_Set                            /home/jins/bl_iot_sdk/customer_app/tt_app_temperature/build_out/bl602_std/libbl602_std.a(bl602_romapi.o)
                                                  /home/jins/bl_iot_sdk/customer_app/tt_app_temperature/build_out/bl602_std/libbl602_std.a(bl602_glb.o)
L1C_Set_Way_Disable                               /home/jins/bl_iot_sdk/customer_app/tt_app_temperature/build_out/bl602_std/libbl602_std.a(bl602_romapi.o)
L1C_Set_Wrap                                      /home/jins/bl_iot_sdk/customer_app/tt_app_temperature/build_out/bl602_std/libbl602_std.a(bl602_romapi.o)
MAC_GEN_IRQHandler                                /home/jins/bl_iot_sdk/customer_app/tt_app_temperature/build_out/bl602_std/libbl602_std.a(interrupt.o)
MAC_PORT_TRG_IRQHandler                           /home/jins/bl_iot_sdk/customer_app/tt_app_temperature/build_out/bl602_std/libbl602_std.a(interrupt.o)
MAC_RX_TRG_IRQHandler                             /home/jins/bl_iot_sdk/customer_app/tt_app_temperature/build_out/bl602_std/libbl602_std.a(interrupt.o)
MAC_TXRX_MISC_IRQHandler                          /home/jins/bl_iot_sdk/customer_app/tt_app_temperature/build_out/bl602_std/libbl602_std.a(interrupt.o)
MAC_TXRX_TIMER_IRQHandler                         /home/jins/bl_iot_sdk/customer_app/tt_app_temperature/build_out/bl602_std/libbl602_std.a(interrupt.o)
MAC_TX_TRG_IRQHandler                             /home/jins/bl_iot_sdk/customer_app/tt_app_temperature/build_out/bl602_std/libbl602_std.a(interrupt.o)
PDS_Default_Level_Config                          /home/jins/bl_iot_sdk/customer_app/tt_app_temperature/build_out/bl602_std/libbl602_std.a(bl602_romapi.o)
PDS_Disable_PLL_All_Clks                          /home/jins/bl_iot_sdk/customer_app/tt_app_temperature/build_out/bl602_std/libbl602_std.a(bl602_romapi.o)
PDS_Disable_PLL_Clk                               /home/jins/bl_iot_sdk/customer_app/tt_app_temperature/build_out/bl602_std/libbl602_std.a(bl602_romapi.o)
PDS_Enable_PLL_All_Clks                           /home/jins/bl_iot_sdk/customer_app/tt_app_temperature/build_out/bl602_std/libbl602_std.a(bl602_romapi.o)
                                                  /home/jins/bl_iot_sdk/customer_app/tt_app_temperature/build_out/bl602_std/libbl602_std.a(bl602_glb.o)
PDS_Enable_PLL_Clk                                /home/jins/bl_iot_sdk/customer_app/tt_app_temperature/build_out/bl602_std/libbl602_std.a(bl602_romapi.o)
                                                  /home/jins/bl_iot_sdk/customer_app/tt_app_temperature/build_out/bl602_std/libbl602_std.a(bl602_glb.o)
PDS_Force_Config                                  /home/jins/bl_iot_sdk/customer_app/tt_app_temperature/build_out/bl602_std/libbl602_std.a(bl602_romapi.o)
PDS_Power_Off_PLL                                 /home/jins/bl_iot_sdk/customer_app/tt_app_temperature/build_out/bl602_std/libbl602_std.a(bl602_romapi.o)
PDS_Power_On_PLL                                  /home/jins/bl_iot_sdk/customer_app/tt_app_temperature/build_out/bl602_std/libbl602_std.a(bl602_romapi.o)
                                                  /home/jins/bl_iot_sdk/customer_app/tt_app_temperature/build_out/bl602_std/libbl602_std.a(bl602_glb.o)
PDS_RAM_Config                                    /home/jins/bl_iot_sdk/customer_app/tt_app_temperature/build_out/bl602_std/libbl602_std.a(bl602_romapi.o)
PDS_Reset                                         /home/jins/bl_iot_sdk/customer_app/tt_app_temperature/build_out/bl602_std/libbl602_std.a(bl602_romapi.o)
PDS_Select_RC32M_As_PLL_Ref                       /home/jins/bl_iot_sdk/customer_app/tt_app_temperature/build_out/bl602_std/libbl602_std.a(bl602_romapi.o)
PDS_Select_XTAL_As_PLL_Ref                        /home/jins/bl_iot_sdk/customer_app/tt_app_temperature/build_out/bl602_std/libbl602_std.a(bl602_romapi.o)
PDS_Trim_RC32M                                    /home/jins/bl_iot_sdk/customer_app/tt_app_temperature/build_out/bl602_std/libbl602_std.a(bl602_romapi.o)
PDS_WAKEUP_IRQHandler                             /home/jins/bl_iot_sdk/customer_app/tt_app_temperature/build_out/bl602_std/libbl602_std.a(interrupt.o)
PWM_IRQHandler                                    /home/jins/bl_iot_sdk/customer_app/tt_app_temperature/build_out/bl602_std/libbl602_std.a(interrupt.o)
PtTable_Get_Active_Entries                        /home/jins/bl_iot_sdk/customer_app/tt_app_temperature/build_out/hal_drv/libhal_drv.a(bl_boot2.o)
                                                  /home/jins/bl_iot_sdk/customer_app/tt_app_temperature/build_out/hal_drv/libhal_drv.a(hal_boot2.o)
PtTable_Set_Flash_Operation                       /home/jins/bl_iot_sdk/customer_app/tt_app_temperature/build_out/hal_drv/libhal_drv.a(hal_boot2.o)
PtTable_Update_Entry                              /home/jins/bl_iot_sdk/customer_app/tt_app_temperature/build_out/hal_drv/libhal_drv.a(bl_boot2.o)
                                                  /home/jins/bl_iot_sdk/customer_app/tt_app_temperature/build_out/hal_drv/libhal_drv.a(hal_boot2.o)
RF_TOP_INT0_IRQHandler                            /home/jins/bl_iot_sdk/customer_app/tt_app_temperature/build_out/bl602_std/libbl602_std.a(interrupt.o)
RF_TOP_INT1_IRQHandler                            /home/jins/bl_iot_sdk/customer_app/tt_app_temperature/build_out/bl602_std/libbl602_std.a(interrupt.o)
Ring_Buffer_Get_Empty_Length                      /home/jins/bl_iot_sdk/customer_app/tt_app_temperature/build_out/bl602_std/libbl602_std.a(ring_buffer.o)
                                                  /home/jins/bl_iot_sdk/customer_app/tt_app_temperature/build_out/bl602_std/libbl602_std.a(platform_device.o)
Ring_Buffer_Get_Length                            /home/jins/bl_iot_sdk/customer_app/tt_app_temperature/build_out/bl602_std/libbl602_std.a(ring_buffer.o)
                                                  /home/jins/bl_iot_sdk/customer_app/tt_app_temperature/build_out/bl602_std/libbl602_std.a(platform_device.o)
Ring_Buffer_Get_Status                            /home/jins/bl_iot_sdk/customer_app/tt_app_temperature/build_out/bl602_std/libbl602_std.a(ring_buffer.o)
Ring_Buffer_Init                                  /home/jins/bl_iot_sdk/customer_app/tt_app_temperature/build_out/bl602_std/libbl602_std.a(ring_buffer.o)
                                                  /home/jins/bl_iot_sdk/customer_app/tt_app_temperature/build_out/bl602_std/libbl602_std.a(platform_device.o)
Ring_Buffer_Peek                                  /home/jins/bl_iot_sdk/customer_app/tt_app_temperature/build_out/bl602_std/libbl602_std.a(ring_buffer.o)
Ring_Buffer_Peek_Byte                             /home/jins/bl_iot_sdk/customer_app/tt_app_temperature/build_out/bl602_std/libbl602_std.a(ring_buffer.o)
Ring_Buffer_Read                                  /home/jins/bl_iot_sdk/customer_app/tt_app_temperature/build_out/bl602_std/libbl602_std.a(ring_buffer.o)
                                                  /home/jins/bl_iot_sdk/customer_app/tt_app_temperature/build_out/bl602_std/libbl602_std.a(platform_device.o)
Ring_Buffer_Read_Byte                             /home/jins/bl_iot_sdk/customer_app/tt_app_temperature/build_out/bl602_std/libbl602_std.a(ring_buffer.o)
Ring_Buffer_Read_Callback                         /home/jins/bl_iot_sdk/customer_app/tt_app_temperature/build_out/bl602_std/libbl602_std.a(ring_buffer.o)
Ring_Buffer_Reset                                 /home/jins/bl_iot_sdk/customer_app/tt_app_temperature/build_out/bl602_std/libbl602_std.a(ring_buffer.o)
Ring_Buffer_Write                                 /home/jins/bl_iot_sdk/customer_app/tt_app_temperature/build_out/bl602_std/libbl602_std.a(ring_buffer.o)
Ring_Buffer_Write_Byte                            /home/jins/bl_iot_sdk/customer_app/tt_app_temperature/build_out/bl602_std/libbl602_std.a(ring_buffer.o)
Ring_Buffer_Write_Byte_Force                      /home/jins/bl_iot_sdk/customer_app/tt_app_temperature/build_out/bl602_std/libbl602_std.a(ring_buffer.o)
Ring_Buffer_Write_Callback                        /home/jins/bl_iot_sdk/customer_app/tt_app_temperature/build_out/bl602_std/libbl602_std.a(ring_buffer.o)
                                                  /home/jins/bl_iot_sdk/customer_app/tt_app_temperature/build_out/bl602_std/libbl602_std.a(platform_device.o)
Ring_Buffer_Write_Force                           /home/jins/bl_iot_sdk/customer_app/tt_app_temperature/build_out/bl602_std/libbl602_std.a(ring_buffer.o)
SDIO_IRQHandler                                   /home/jins/bl_iot_sdk/customer_app/tt_app_temperature/build_out/bl602_std/libbl602_std.a(interrupt.o)
SEC_AES_IRQHandler                                /home/jins/bl_iot_sdk/customer_app/tt_app_temperature/build_out/bl602_std/libbl602_std.a(interrupt.o)
SEC_BMX_ERR_IRQHandler                            /home/jins/bl_iot_sdk/customer_app/tt_app_temperature/build_out/bl602_std/libbl602_std.a(interrupt.o)
SEC_CDET_IRQHandler                               /home/jins/bl_iot_sdk/customer_app/tt_app_temperature/build_out/bl602_std/libbl602_std.a(interrupt.o)
SEC_Eng_ClrIntStatus                              /home/jins/bl_iot_sdk/customer_app/tt_app_temperature/build_out/bl602_std/libbl602_std.a(bl602_sec_eng.o)
SEC_Eng_GetIntStatus                              /home/jins/bl_iot_sdk/customer_app/tt_app_temperature/build_out/bl602_std/libbl602_std.a(bl602_sec_eng.o)
SEC_Eng_IntMask                                   /home/jins/bl_iot_sdk/customer_app/tt_app_temperature/build_out/bl602_std/libbl602_std.a(bl602_sec_eng.o)
SEC_Eng_Int_Callback_Install                      /home/jins/bl_iot_sdk/customer_app/tt_app_temperature/build_out/bl602_std/libbl602_std.a(bl602_sec_eng.o)
SEC_Eng_Turn_Off_Sec_Ring                         /home/jins/bl_iot_sdk/customer_app/tt_app_temperature/build_out/bl602_std/libbl602_std.a(bl602_romapi.o)
SEC_Eng_Turn_On_Sec_Ring                          /home/jins/bl_iot_sdk/customer_app/tt_app_temperature/build_out/bl602_std/libbl602_std.a(bl602_romapi.o)
SEC_GMAC_IRQHandler                               /home/jins/bl_iot_sdk/customer_app/tt_app_temperature/build_out/bl602_std/libbl602_std.a(interrupt.o)
SEC_PKA_IRQHandler                                /home/jins/bl_iot_sdk/customer_app/tt_app_temperature/build_out/bl602_std/libbl602_std.a(interrupt.o)
SEC_SHA_IRQHandler                                /home/jins/bl_iot_sdk/customer_app/tt_app_temperature/build_out/bl602_std/libbl602_std.a(interrupt.o)
SEC_TRNG_IRQHandler                               /home/jins/bl_iot_sdk/customer_app/tt_app_temperature/build_out/bl602_std/libbl602_std.a(interrupt.o)
SF_CTRL_IRQHandler                                /home/jins/bl_iot_sdk/customer_app/tt_app_temperature/build_out/bl602_std/libbl602_std.a(interrupt.o)
SF_Cfg_Deinit_Ext_Flash_Gpio                      /home/jins/bl_iot_sdk/customer_app/tt_app_temperature/build_out/bl602_std/libbl602_std.a(bl602_romapi.o)
SF_Cfg_Flash_Identify                             /home/jins/bl_iot_sdk/customer_app/tt_app_temperature/build_out/bl602_std/libbl602_std.a(bl602_romapi.o)
SF_Cfg_Get_Flash_Cfg_Need_Lock                    /home/jins/bl_iot_sdk/customer_app/tt_app_temperature/build_out/bl602_std/libbl602_std.a(bl602_romapi.o)
SF_Cfg_Init_Ext_Flash_Gpio                        /home/jins/bl_iot_sdk/customer_app/tt_app_temperature/build_out/bl602_std/libbl602_std.a(bl602_romapi.o)
SF_Cfg_Init_Flash_Gpio                            /home/jins/bl_iot_sdk/customer_app/tt_app_temperature/build_out/bl602_std/libbl602_std.a(bl602_romapi.o)
SF_Cfg_Init_Internal_Flash_Gpio                   /home/jins/bl_iot_sdk/customer_app/tt_app_temperature/build_out/bl602_std/libbl602_std.a(bl602_romapi.o)
SF_Cfg_Restore_GPIO17_Fun                         /home/jins/bl_iot_sdk/customer_app/tt_app_temperature/build_out/bl602_std/libbl602_std.a(bl602_romapi.o)
SF_Ctrl_AES_Disable                               /home/jins/bl_iot_sdk/customer_app/tt_app_temperature/build_out/bl602_std/libbl602_std.a(bl602_romapi.o)
SF_Ctrl_AES_Enable                                /home/jins/bl_iot_sdk/customer_app/tt_app_temperature/build_out/bl602_std/libbl602_std.a(bl602_romapi.o)
SF_Ctrl_AES_Enable_BE                             /home/jins/bl_iot_sdk/customer_app/tt_app_temperature/build_out/bl602_std/libbl602_std.a(bl602_romapi.o)
SF_Ctrl_AES_Enable_LE                             /home/jins/bl_iot_sdk/customer_app/tt_app_temperature/build_out/bl602_std/libbl602_std.a(bl602_romapi.o)
SF_Ctrl_AES_Set_IV                                /home/jins/bl_iot_sdk/customer_app/tt_app_temperature/build_out/bl602_std/libbl602_std.a(bl602_romapi.o)
SF_Ctrl_AES_Set_IV_BE                             /home/jins/bl_iot_sdk/customer_app/tt_app_temperature/build_out/bl602_std/libbl602_std.a(bl602_romapi.o)
SF_Ctrl_AES_Set_Key                               /home/jins/bl_iot_sdk/customer_app/tt_app_temperature/build_out/bl602_std/libbl602_std.a(bl602_romapi.o)
SF_Ctrl_AES_Set_Key_BE                            /home/jins/bl_iot_sdk/customer_app/tt_app_temperature/build_out/bl602_std/libbl602_std.a(bl602_romapi.o)
SF_Ctrl_AES_Set_Region                            /home/jins/bl_iot_sdk/customer_app/tt_app_temperature/build_out/bl602_std/libbl602_std.a(bl602_romapi.o)
SF_Ctrl_Disable                                   /home/jins/bl_iot_sdk/customer_app/tt_app_temperature/build_out/bl602_std/libbl602_std.a(bl602_romapi.o)
SF_Ctrl_Enable                                    /home/jins/bl_iot_sdk/customer_app/tt_app_temperature/build_out/bl602_std/libbl602_std.a(bl602_romapi.o)
                                                  /home/jins/bl_iot_sdk/customer_app/tt_app_temperature/build_out/bl602_std/libbl602_std.a(bl602_glb.o)
SF_Ctrl_GetBusyState                              /home/jins/bl_iot_sdk/customer_app/tt_app_temperature/build_out/bl602_std/libbl602_std.a(bl602_romapi.o)
SF_Ctrl_Get_Clock_Delay                           /home/jins/bl_iot_sdk/customer_app/tt_app_temperature/build_out/bl602_std/libbl602_std.a(bl602_romapi.o)
SF_Ctrl_Get_Flash_Image_Offset                    /home/jins/bl_iot_sdk/customer_app/tt_app_temperature/build_out/bl602_std/libbl602_std.a(bl602_romapi.o)
SF_Ctrl_Icache2_Set                               /home/jins/bl_iot_sdk/customer_app/tt_app_temperature/build_out/bl602_std/libbl602_std.a(bl602_romapi.o)
SF_Ctrl_Icache_Set                                /home/jins/bl_iot_sdk/customer_app/tt_app_temperature/build_out/bl602_std/libbl602_std.a(bl602_romapi.o)
SF_Ctrl_Is_AES_Enable                             /home/jins/bl_iot_sdk/customer_app/tt_app_temperature/build_out/bl602_std/libbl602_std.a(bl602_romapi.o)
SF_Ctrl_Select_Clock                              /home/jins/bl_iot_sdk/customer_app/tt_app_temperature/build_out/bl602_std/libbl602_std.a(bl602_romapi.o)
SF_Ctrl_Select_Pad                                /home/jins/bl_iot_sdk/customer_app/tt_app_temperature/build_out/bl602_std/libbl602_std.a(bl602_romapi.o)
SF_Ctrl_SendCmd                                   /home/jins/bl_iot_sdk/customer_app/tt_app_temperature/build_out/bl602_std/libbl602_std.a(bl602_romapi.o)
SF_Ctrl_Set_Clock_Delay                           /home/jins/bl_iot_sdk/customer_app/tt_app_temperature/build_out/bl602_std/libbl602_std.a(bl602_romapi.o)
SF_Ctrl_Set_Flash_Image_Offset                    /home/jins/bl_iot_sdk/customer_app/tt_app_temperature/build_out/bl602_std/libbl602_std.a(bl602_romapi.o)
SF_Ctrl_Set_Owner                                 /home/jins/bl_iot_sdk/customer_app/tt_app_temperature/build_out/bl602_std/libbl602_std.a(bl602_romapi.o)
                                                  /home/jins/bl_iot_sdk/customer_app/tt_app_temperature/build_out/bl602_std/libbl602_std.a(bl602_hbn.o)
SFlash_Blk32_Erase                                /home/jins/bl_iot_sdk/customer_app/tt_app_temperature/build_out/bl602_std/libbl602_std.a(bl602_romapi.o)
SFlash_Blk64_Erase                                /home/jins/bl_iot_sdk/customer_app/tt_app_temperature/build_out/bl602_std/libbl602_std.a(bl602_romapi.o)
SFlash_Busy                                       /home/jins/bl_iot_sdk/customer_app/tt_app_temperature/build_out/bl602_std/libbl602_std.a(bl602_romapi.o)
SFlash_Cache_Enable_Set                           /home/jins/bl_iot_sdk/customer_app/tt_app_temperature/build_out/bl602_std/libbl602_std.a(bl602_romapi.o)
SFlash_Cache_Flush                                /home/jins/bl_iot_sdk/customer_app/tt_app_temperature/build_out/bl602_std/libbl602_std.a(bl602_romapi.o)
                                                  /home/jins/bl_iot_sdk/customer_app/tt_app_temperature/build_out/bl602_std/libbl602_std.a(bl602_hbn.o)
SFlash_Cache_Hit_Count_Get                        /home/jins/bl_iot_sdk/customer_app/tt_app_temperature/build_out/bl602_std/libbl602_std.a(bl602_romapi.o)
SFlash_Cache_Miss_Count_Get                       /home/jins/bl_iot_sdk/customer_app/tt_app_temperature/build_out/bl602_std/libbl602_std.a(bl602_romapi.o)
SFlash_Cache_Read_Disable                         /home/jins/bl_iot_sdk/customer_app/tt_app_temperature/build_out/bl602_std/libbl602_std.a(bl602_romapi.o)
SFlash_Cache_Read_Enable                          /home/jins/bl_iot_sdk/customer_app/tt_app_temperature/build_out/bl602_std/libbl602_std.a(bl602_romapi.o)
SFlash_Chip_Erase                                 /home/jins/bl_iot_sdk/customer_app/tt_app_temperature/build_out/bl602_std/libbl602_std.a(bl602_romapi.o)
SFlash_DisableBurstWrap                           /home/jins/bl_iot_sdk/customer_app/tt_app_temperature/build_out/bl602_std/libbl602_std.a(bl602_romapi.o)
SFlash_Erase                                      /home/jins/bl_iot_sdk/customer_app/tt_app_temperature/build_out/bl602_std/libbl602_std.a(bl602_romapi.o)
SFlash_GetDeviceId                                /home/jins/bl_iot_sdk/customer_app/tt_app_temperature/build_out/bl602_std/libbl602_std.a(bl602_romapi.o)
SFlash_GetJedecId                                 /home/jins/bl_iot_sdk/customer_app/tt_app_temperature/build_out/bl602_std/libbl602_std.a(bl602_romapi.o)
SFlash_GetUniqueId                                /home/jins/bl_iot_sdk/customer_app/tt_app_temperature/build_out/bl602_std/libbl602_std.a(bl602_romapi.o)
SFlash_IDbus_Read_Enable                          /home/jins/bl_iot_sdk/customer_app/tt_app_temperature/build_out/bl602_std/libbl602_std.a(bl602_romapi.o)
SFlash_Init                                       /home/jins/bl_iot_sdk/customer_app/tt_app_temperature/build_out/bl602_std/libbl602_std.a(bl602_romapi.o)
SFlash_Powerdown                                  /home/jins/bl_iot_sdk/customer_app/tt_app_temperature/build_out/bl602_std/libbl602_std.a(bl602_romapi.o)
                                                  /home/jins/bl_iot_sdk/customer_app/tt_app_temperature/build_out/bl602_std/libbl602_std.a(bl602_hbn.o)
SFlash_Program                                    /home/jins/bl_iot_sdk/customer_app/tt_app_temperature/build_out/bl602_std/libbl602_std.a(bl602_romapi.o)
SFlash_Qspi_Enable                                /home/jins/bl_iot_sdk/customer_app/tt_app_temperature/build_out/bl602_std/libbl602_std.a(bl602_romapi.o)
SFlash_Read                                       /home/jins/bl_iot_sdk/customer_app/tt_app_temperature/build_out/bl602_std/libbl602_std.a(bl602_romapi.o)
SFlash_Read_Reg                                   /home/jins/bl_iot_sdk/customer_app/tt_app_temperature/build_out/bl602_std/libbl602_std.a(bl602_romapi.o)
SFlash_Read_Reg_With_Cmd                          /home/jins/bl_iot_sdk/customer_app/tt_app_temperature/build_out/bl602_std/libbl602_std.a(bl602_romapi.o)
SFlash_Releae_Powerdown                           /home/jins/bl_iot_sdk/customer_app/tt_app_temperature/build_out/bl602_std/libbl602_std.a(bl602_romapi.o)
SFlash_Reset_Continue_Read                        /home/jins/bl_iot_sdk/customer_app/tt_app_temperature/build_out/bl602_std/libbl602_std.a(bl602_romapi.o)
                                                  /home/jins/bl_iot_sdk/customer_app/tt_app_temperature/build_out/bl602_std/libbl602_std.a(bl602_hbn.o)
SFlash_Sector_Erase                               /home/jins/bl_iot_sdk/customer_app/tt_app_temperature/build_out/bl602_std/libbl602_std.a(bl602_romapi.o)
SFlash_SetBurstWrap                               /home/jins/bl_iot_sdk/customer_app/tt_app_temperature/build_out/bl602_std/libbl602_std.a(bl602_romapi.o)
SFlash_SetSPIMode                                 /home/jins/bl_iot_sdk/customer_app/tt_app_temperature/build_out/bl602_std/libbl602_std.a(bl602_romapi.o)
SFlash_Set_IDbus_Cfg                              /home/jins/bl_iot_sdk/customer_app/tt_app_temperature/build_out/bl602_std/libbl602_std.a(bl602_romapi.o)
SFlash_Software_Reset                             /home/jins/bl_iot_sdk/customer_app/tt_app_temperature/build_out/bl602_std/libbl602_std.a(bl602_romapi.o)
SFlash_Volatile_Reg_Write_Enable                  /home/jins/bl_iot_sdk/customer_app/tt_app_temperature/build_out/bl602_std/libbl602_std.a(bl602_romapi.o)
SFlash_Write_Enable                               /home/jins/bl_iot_sdk/customer_app/tt_app_temperature/build_out/bl602_std/libbl602_std.a(bl602_romapi.o)
SFlash_Write_Reg                                  /home/jins/bl_iot_sdk/customer_app/tt_app_temperature/build_out/bl602_std/libbl602_std.a(bl602_romapi.o)
SFlash_Write_Reg_With_Cmd                         /home/jins/bl_iot_sdk/customer_app/tt_app_temperature/build_out/bl602_std/libbl602_std.a(bl602_romapi.o)
SPI_IRQHandler                                    /home/jins/bl_iot_sdk/customer_app/tt_app_temperature/build_out/bl602_std/libbl602_std.a(interrupt.o)
Sec_Eng_AES_Crypt                                 /home/jins/bl_iot_sdk/customer_app/tt_app_temperature/build_out/bl602_std/libbl602_std.a(bl602_sec_eng.o)
Sec_Eng_AES_Disable_Link                          /home/jins/bl_iot_sdk/customer_app/tt_app_temperature/build_out/bl602_std/libbl602_std.a(bl602_sec_eng.o)
Sec_Eng_AES_Enable_BE                             /home/jins/bl_iot_sdk/customer_app/tt_app_temperature/build_out/bl602_std/libbl602_std.a(bl602_sec_eng.o)
Sec_Eng_AES_Enable_LE                             /home/jins/bl_iot_sdk/customer_app/tt_app_temperature/build_out/bl602_std/libbl602_std.a(bl602_sec_eng.o)
Sec_Eng_AES_Enable_Link                           /home/jins/bl_iot_sdk/customer_app/tt_app_temperature/build_out/bl602_std/libbl602_std.a(bl602_sec_eng.o)
Sec_Eng_AES_Finish                                /home/jins/bl_iot_sdk/customer_app/tt_app_temperature/build_out/bl602_std/libbl602_std.a(bl602_sec_eng.o)
Sec_Eng_AES_Init                                  /home/jins/bl_iot_sdk/customer_app/tt_app_temperature/build_out/bl602_std/libbl602_std.a(bl602_sec_eng.o)
Sec_Eng_AES_Link_Work                             /home/jins/bl_iot_sdk/customer_app/tt_app_temperature/build_out/bl602_std/libbl602_std.a(bl602_sec_eng.o)
Sec_Eng_AES_Set_Counter_Byte                      /home/jins/bl_iot_sdk/customer_app/tt_app_temperature/build_out/bl602_std/libbl602_std.a(bl602_sec_eng.o)
Sec_Eng_AES_Set_Hw_Key_Src                        /home/jins/bl_iot_sdk/customer_app/tt_app_temperature/build_out/bl602_std/libbl602_std.a(bl602_sec_eng.o)
Sec_Eng_AES_Set_Key_IV                            /home/jins/bl_iot_sdk/customer_app/tt_app_temperature/build_out/bl602_std/libbl602_std.a(bl602_sec_eng.o)
Sec_Eng_AES_Set_Key_IV_BE                         /home/jins/bl_iot_sdk/customer_app/tt_app_temperature/build_out/bl602_std/libbl602_std.a(bl602_sec_eng.o)
Sec_Eng_GMAC_Disable_Link                         /home/jins/bl_iot_sdk/customer_app/tt_app_temperature/build_out/bl602_std/libbl602_std.a(bl602_sec_eng.o)
Sec_Eng_GMAC_Enable_BE                            /home/jins/bl_iot_sdk/customer_app/tt_app_temperature/build_out/bl602_std/libbl602_std.a(bl602_sec_eng.o)
Sec_Eng_GMAC_Enable_LE                            /home/jins/bl_iot_sdk/customer_app/tt_app_temperature/build_out/bl602_std/libbl602_std.a(bl602_sec_eng.o)
Sec_Eng_GMAC_Enable_Link                          /home/jins/bl_iot_sdk/customer_app/tt_app_temperature/build_out/bl602_std/libbl602_std.a(bl602_sec_eng.o)
Sec_Eng_GMAC_Link_Work                            /home/jins/bl_iot_sdk/customer_app/tt_app_temperature/build_out/bl602_std/libbl602_std.a(bl602_sec_eng.o)
Sec_Eng_PKA_BigEndian_Enable                      /home/jins/bl_iot_sdk/customer_app/tt_app_temperature/build_out/bl602_std/libbl602_std.a(bl602_sec_eng.o)
Sec_Eng_PKA_CREG                                  /home/jins/bl_iot_sdk/customer_app/tt_app_temperature/build_out/bl602_std/libbl602_std.a(bl602_sec_eng.o)
Sec_Eng_PKA_Clear_Int                             /home/jins/bl_iot_sdk/customer_app/tt_app_temperature/build_out/bl602_std/libbl602_std.a(bl602_sec_eng.o)
Sec_Eng_PKA_GF2Mont                               /home/jins/bl_iot_sdk/customer_app/tt_app_temperature/build_out/bl602_std/libbl602_std.a(bl602_sec_eng.o)
Sec_Eng_PKA_LADD                                  /home/jins/bl_iot_sdk/customer_app/tt_app_temperature/build_out/bl602_std/libbl602_std.a(bl602_sec_eng.o)
Sec_Eng_PKA_LCMP                                  /home/jins/bl_iot_sdk/customer_app/tt_app_temperature/build_out/bl602_std/libbl602_std.a(bl602_sec_eng.o)
Sec_Eng_PKA_LDIV                                  /home/jins/bl_iot_sdk/customer_app/tt_app_temperature/build_out/bl602_std/libbl602_std.a(bl602_sec_eng.o)
Sec_Eng_PKA_LDIV2N                                /home/jins/bl_iot_sdk/customer_app/tt_app_temperature/build_out/bl602_std/libbl602_std.a(bl602_sec_eng.o)
Sec_Eng_PKA_LMOD2N                                /home/jins/bl_iot_sdk/customer_app/tt_app_temperature/build_out/bl602_std/libbl602_std.a(bl602_sec_eng.o)
Sec_Eng_PKA_LMUL                                  /home/jins/bl_iot_sdk/customer_app/tt_app_temperature/build_out/bl602_std/libbl602_std.a(bl602_sec_eng.o)
Sec_Eng_PKA_LMUL2N                                /home/jins/bl_iot_sdk/customer_app/tt_app_temperature/build_out/bl602_std/libbl602_std.a(bl602_sec_eng.o)
Sec_Eng_PKA_LSQR                                  /home/jins/bl_iot_sdk/customer_app/tt_app_temperature/build_out/bl602_std/libbl602_std.a(bl602_sec_eng.o)
Sec_Eng_PKA_LSUB                                  /home/jins/bl_iot_sdk/customer_app/tt_app_temperature/build_out/bl602_std/libbl602_std.a(bl602_sec_eng.o)
Sec_Eng_PKA_LittleEndian_Enable                   /home/jins/bl_iot_sdk/customer_app/tt_app_temperature/build_out/bl602_std/libbl602_std.a(bl602_sec_eng.o)
Sec_Eng_PKA_MADD                                  /home/jins/bl_iot_sdk/customer_app/tt_app_temperature/build_out/bl602_std/libbl602_std.a(bl602_sec_eng.o)
Sec_Eng_PKA_MEXP                                  /home/jins/bl_iot_sdk/customer_app/tt_app_temperature/build_out/bl602_std/libbl602_std.a(bl602_sec_eng.o)
Sec_Eng_PKA_MINV                                  /home/jins/bl_iot_sdk/customer_app/tt_app_temperature/build_out/bl602_std/libbl602_std.a(bl602_sec_eng.o)
Sec_Eng_PKA_MMUL                                  /home/jins/bl_iot_sdk/customer_app/tt_app_temperature/build_out/bl602_std/libbl602_std.a(bl602_sec_eng.o)
Sec_Eng_PKA_MREM                                  /home/jins/bl_iot_sdk/customer_app/tt_app_temperature/build_out/bl602_std/libbl602_std.a(bl602_sec_eng.o)
Sec_Eng_PKA_MSQR                                  /home/jins/bl_iot_sdk/customer_app/tt_app_temperature/build_out/bl602_std/libbl602_std.a(bl602_sec_eng.o)
Sec_Eng_PKA_MSUB                                  /home/jins/bl_iot_sdk/customer_app/tt_app_temperature/build_out/bl602_std/libbl602_std.a(bl602_sec_eng.o)
Sec_Eng_PKA_Mont2GF                               /home/jins/bl_iot_sdk/customer_app/tt_app_temperature/build_out/bl602_std/libbl602_std.a(bl602_sec_eng.o)
Sec_Eng_PKA_Move_Data                             /home/jins/bl_iot_sdk/customer_app/tt_app_temperature/build_out/bl602_std/libbl602_std.a(bl602_sec_eng.o)
Sec_Eng_PKA_NREG                                  /home/jins/bl_iot_sdk/customer_app/tt_app_temperature/build_out/bl602_std/libbl602_std.a(bl602_sec_eng.o)
Sec_Eng_PKA_RESIZE                                /home/jins/bl_iot_sdk/customer_app/tt_app_temperature/build_out/bl602_std/libbl602_std.a(bl602_sec_eng.o)
Sec_Eng_PKA_Read_Block                            /home/jins/bl_iot_sdk/customer_app/tt_app_temperature/build_out/bl602_std/libbl602_std.a(bl602_sec_eng.o)
Sec_Eng_PKA_Read_Data                             /home/jins/bl_iot_sdk/customer_app/tt_app_temperature/build_out/bl602_std/libbl602_std.a(bl602_sec_eng.o)
Sec_Eng_PKA_Reset                                 /home/jins/bl_iot_sdk/customer_app/tt_app_temperature/build_out/bl602_std/libbl602_std.a(bl602_sec_eng.o)
Sec_Eng_PKA_Write_Block                           /home/jins/bl_iot_sdk/customer_app/tt_app_temperature/build_out/bl602_std/libbl602_std.a(bl602_sec_eng.o)
Sec_Eng_PKA_Write_Data                            /home/jins/bl_iot_sdk/customer_app/tt_app_temperature/build_out/bl602_std/libbl602_std.a(bl602_sec_eng.o)
Sec_Eng_PKA_Write_Immediate                       /home/jins/bl_iot_sdk/customer_app/tt_app_temperature/build_out/bl602_std/libbl602_std.a(bl602_sec_eng.o)
Sec_Eng_SHA256_Finish                             /home/jins/bl_iot_sdk/customer_app/tt_app_temperature/build_out/bl602_std/libbl602_std.a(bl602_sec_eng.o)
Sec_Eng_SHA256_Init                               /home/jins/bl_iot_sdk/customer_app/tt_app_temperature/build_out/bl602_std/libbl602_std.a(bl602_sec_eng.o)
Sec_Eng_SHA256_Link_Finish                        /home/jins/bl_iot_sdk/customer_app/tt_app_temperature/build_out/bl602_std/libbl602_std.a(bl602_sec_eng.o)
Sec_Eng_SHA256_Link_Init                          /home/jins/bl_iot_sdk/customer_app/tt_app_temperature/build_out/bl602_std/libbl602_std.a(bl602_sec_eng.o)
Sec_Eng_SHA256_Link_Update                        /home/jins/bl_iot_sdk/customer_app/tt_app_temperature/build_out/bl602_std/libbl602_std.a(bl602_sec_eng.o)
Sec_Eng_SHA256_Update                             /home/jins/bl_iot_sdk/customer_app/tt_app_temperature/build_out/bl602_std/libbl602_std.a(bl602_sec_eng.o)
Sec_Eng_SHA_Disable_Link                          /home/jins/bl_iot_sdk/customer_app/tt_app_temperature/build_out/bl602_std/libbl602_std.a(bl602_sec_eng.o)
Sec_Eng_SHA_Enable_Link                           /home/jins/bl_iot_sdk/customer_app/tt_app_temperature/build_out/bl602_std/libbl602_std.a(bl602_sec_eng.o)
Sec_Eng_SHA_Start                                 /home/jins/bl_iot_sdk/customer_app/tt_app_temperature/build_out/bl602_std/libbl602_std.a(bl602_sec_eng.o)
Sec_Eng_Trng_Disable                              /home/jins/bl_iot_sdk/customer_app/tt_app_temperature/build_out/bl602_std/libbl602_std.a(bl602_sec_eng.o)
                                                  /home/jins/bl_iot_sdk/customer_app/tt_app_temperature/build_out/bl602_std/libbl602_std.a(platform_device.o)
Sec_Eng_Trng_Enable                               /home/jins/bl_iot_sdk/customer_app/tt_app_temperature/build_out/bl602_std/libbl602_std.a(bl602_sec_eng.o)
                                                  /home/jins/bl_iot_sdk/customer_app/tt_app_temperature/build_out/bl602_std/libbl602_std.a(platform_device.o)
Sec_Eng_Trng_Int_Disable                          /home/jins/bl_iot_sdk/customer_app/tt_app_temperature/build_out/bl602_std/libbl602_std.a(bl602_sec_eng.o)
Sec_Eng_Trng_Int_Enable                           /home/jins/bl_iot_sdk/customer_app/tt_app_temperature/build_out/bl602_std/libbl602_std.a(bl602_sec_eng.o)
Sec_Eng_Trng_Int_Read                             /home/jins/bl_iot_sdk/customer_app/tt_app_temperature/build_out/bl602_std/libbl602_std.a(bl602_sec_eng.o)
Sec_Eng_Trng_Int_Read_Trigger                     /home/jins/bl_iot_sdk/customer_app/tt_app_temperature/build_out/bl602_std/libbl602_std.a(bl602_sec_eng.o)
Sec_Eng_Trng_Read                                 /home/jins/bl_iot_sdk/customer_app/tt_app_temperature/build_out/bl602_std/libbl602_std.a(bl602_sec_eng.o)
                                                  /home/jins/bl_iot_sdk/customer_app/tt_app_temperature/build_out/bl602_std/libbl602_std.a(platform_device.o)
System_Core_Clock_Update_From_RC32M               /home/jins/bl_iot_sdk/customer_app/tt_app_temperature/build_out/bl602_std/libbl602_std.a(bl602_romapi.o)
TIMER_CH0_IRQHandler                              /home/jins/bl_iot_sdk/customer_app/tt_app_temperature/build_out/bl602_std/libbl602_std.a(interrupt.o)
TIMER_CH1_IRQHandler                              /home/jins/bl_iot_sdk/customer_app/tt_app_temperature/build_out/bl602_std/libbl602_std.a(interrupt.o)
TIMER_WDT_IRQHandler                              /home/jins/bl_iot_sdk/customer_app/tt_app_temperature/build_out/bl602_std/libbl602_std.a(interrupt.o)
TrapNetCounter                                    /home/jins/bl_iot_sdk/customer_app/tt_app_temperature/build_out/freertos_riscv_ram/libfreertos_riscv_ram.a(port.o)
Trap_Handler                                      /home/jins/bl_iot_sdk/customer_app/tt_app_temperature/build_out/bl602_std/libbl602_std.a(bl602_common.o)
                                                  /home/jins/bl_iot_sdk/customer_app/tt_app_temperature/build_out/bl602_std/libbl602_std.a(interrupt.o)
Trap_Handler_Stub                                 /home/jins/bl_iot_sdk/customer_app/tt_app_temperature/build_out/bl602_std/libbl602_std.a(interrupt.o)
UART0_IRQHandler                                  /home/jins/bl_iot_sdk/customer_app/tt_app_temperature/build_out/hal_drv/libhal_drv.a(bl_uart.o)
                                                  /home/jins/bl_iot_sdk/customer_app/tt_app_temperature/build_out/bl602_std/libbl602_std.a(interrupt.o)
UART1_IRQHandler                                  /home/jins/bl_iot_sdk/customer_app/tt_app_temperature/build_out/hal_drv/libhal_drv.a(bl_uart.o)
                                                  /home/jins/bl_iot_sdk/customer_app/tt_app_temperature/build_out/bl602_std/libbl602_std.a(interrupt.o)
UART_AutoBaudDetection                            /home/jins/bl_iot_sdk/customer_app/tt_app_temperature/build_out/bl602_std/libbl602_std.a(bl602_uart.o)
UART_ClrRtsValue                                  /home/jins/bl_iot_sdk/customer_app/tt_app_temperature/build_out/bl602_std/libbl602_std.a(bl602_uart.o)
UART_DeInit                                       /home/jins/bl_iot_sdk/customer_app/tt_app_temperature/build_out/bl602_std/libbl602_std.a(bl602_uart.o)
UART_Disable                                      /home/jins/bl_iot_sdk/customer_app/tt_app_temperature/build_out/bl602_std/libbl602_std.a(bl602_uart.o)
                                                  /home/jins/bl_iot_sdk/customer_app/tt_app_temperature/build_out/hal_drv/libhal_drv.a(bl_uart.o)
                                                  /home/jins/bl_iot_sdk/customer_app/tt_app_temperature/build_out/bl602_std/libbl602_std.a(platform_device.o)
UART_Enable                                       /home/jins/bl_iot_sdk/customer_app/tt_app_temperature/build_out/bl602_std/libbl602_std.a(bl602_uart.o)
                                                  /home/jins/bl_iot_sdk/customer_app/tt_app_temperature/build_out/hal_drv/libhal_drv.a(bl_uart.o)
                                                  /home/jins/bl_iot_sdk/customer_app/tt_app_temperature/build_out/bl602_std/libbl602_std.a(platform_device.o)
UART_FifoConfig                                   /home/jins/bl_iot_sdk/customer_app/tt_app_temperature/build_out/bl602_std/libbl602_std.a(bl602_uart.o)
                                                  /home/jins/bl_iot_sdk/customer_app/tt_app_temperature/build_out/hal_drv/libhal_drv.a(bl_uart.o)
                                                  /home/jins/bl_iot_sdk/customer_app/tt_app_temperature/build_out/bl602_std/libbl602_std.a(platform_device.o)
UART_GetAutoBaudCount                             /home/jins/bl_iot_sdk/customer_app/tt_app_temperature/build_out/bl602_std/libbl602_std.a(bl602_uart.o)
UART_GetIntStatus                                 /home/jins/bl_iot_sdk/customer_app/tt_app_temperature/build_out/bl602_std/libbl602_std.a(bl602_uart.o)
UART_GetOverflowStatus                            /home/jins/bl_iot_sdk/customer_app/tt_app_temperature/build_out/bl602_std/libbl602_std.a(bl602_uart.o)
UART_GetRxBusBusyStatus                           /home/jins/bl_iot_sdk/customer_app/tt_app_temperature/build_out/bl602_std/libbl602_std.a(bl602_uart.o)
UART_GetRxFifoCount                               /home/jins/bl_iot_sdk/customer_app/tt_app_temperature/build_out/bl602_std/libbl602_std.a(bl602_uart.o)
                                                  /home/jins/bl_iot_sdk/customer_app/tt_app_temperature/build_out/hal_drv/libhal_drv.a(bl_uart.o)
                                                  /home/jins/bl_iot_sdk/customer_app/tt_app_temperature/build_out/bl602_std/libbl602_std.a(platform_device.o)
UART_GetTxBusBusyStatus                           /home/jins/bl_iot_sdk/customer_app/tt_app_temperature/build_out/bl602_std/libbl602_std.a(bl602_uart.o)
UART_GetTxFifoCount                               /home/jins/bl_iot_sdk/customer_app/tt_app_temperature/build_out/bl602_std/libbl602_std.a(bl602_uart.o)
                                                  /home/jins/bl_iot_sdk/customer_app/tt_app_temperature/build_out/hal_drv/libhal_drv.a(bl_uart.o)
UART_Init                                         /home/jins/bl_iot_sdk/customer_app/tt_app_temperature/build_out/bl602_std/libbl602_std.a(bl602_uart.o)
                                                  /home/jins/bl_iot_sdk/customer_app/tt_app_temperature/build_out/hal_drv/libhal_drv.a(bl_uart.o)
                                                  /home/jins/bl_iot_sdk/customer_app/tt_app_temperature/build_out/bl602_std/libbl602_std.a(platform_device.o)
UART_IntClear                                     /home/jins/bl_iot_sdk/customer_app/tt_app_temperature/build_out/bl602_std/libbl602_std.a(bl602_uart.o)
UART_IntMask                                      /home/jins/bl_iot_sdk/customer_app/tt_app_temperature/build_out/bl602_std/libbl602_std.a(bl602_uart.o)
                                                  /home/jins/bl_iot_sdk/customer_app/tt_app_temperature/build_out/hal_drv/libhal_drv.a(bl_uart.o)
                                                  /home/jins/bl_iot_sdk/customer_app/tt_app_temperature/build_out/bl602_std/libbl602_std.a(platform_device.o)
UART_Int_Callback_Install                         /home/jins/bl_iot_sdk/customer_app/tt_app_temperature/build_out/bl602_std/libbl602_std.a(bl602_uart.o)
                                                  /home/jins/bl_iot_sdk/customer_app/tt_app_temperature/build_out/bl602_std/libbl602_std.a(platform_device.o)
UART_IrConfig                                     /home/jins/bl_iot_sdk/customer_app/tt_app_temperature/build_out/bl602_std/libbl602_std.a(bl602_uart.o)
UART_ReceiveData                                  /home/jins/bl_iot_sdk/customer_app/tt_app_temperature/build_out/bl602_std/libbl602_std.a(bl602_uart.o)
                                                  /home/jins/bl_iot_sdk/customer_app/tt_app_temperature/build_out/bl602_std/libbl602_std.a(platform_device.o)
UART_RxFifoClear                                  /home/jins/bl_iot_sdk/customer_app/tt_app_temperature/build_out/bl602_std/libbl602_std.a(bl602_uart.o)
UART_SendData                                     /home/jins/bl_iot_sdk/customer_app/tt_app_temperature/build_out/bl602_std/libbl602_std.a(bl602_uart.o)
                                                  /home/jins/bl_iot_sdk/customer_app/tt_app_temperature/build_out/bl602_std/libbl602_std.a(platform_device.o)
UART_SendDataBlock                                /home/jins/bl_iot_sdk/customer_app/tt_app_temperature/build_out/bl602_std/libbl602_std.a(bl602_uart.o)
UART_SetBaudrate                                  /home/jins/bl_iot_sdk/customer_app/tt_app_temperature/build_out/bl602_std/libbl602_std.a(bl602_uart.o)
UART_SetDeglitchCount                             /home/jins/bl_iot_sdk/customer_app/tt_app_temperature/build_out/bl602_std/libbl602_std.a(bl602_uart.o)
UART_SetRtsValue                                  /home/jins/bl_iot_sdk/customer_app/tt_app_temperature/build_out/bl602_std/libbl602_std.a(bl602_uart.o)
UART_SetRxDataLength                              /home/jins/bl_iot_sdk/customer_app/tt_app_temperature/build_out/bl602_std/libbl602_std.a(bl602_uart.o)
UART_SetRxTimeoutValue                            /home/jins/bl_iot_sdk/customer_app/tt_app_temperature/build_out/bl602_std/libbl602_std.a(bl602_uart.o)
                                                  /home/jins/bl_iot_sdk/customer_app/tt_app_temperature/build_out/hal_drv/libhal_drv.a(bl_uart.o)
                                                  /home/jins/bl_iot_sdk/customer_app/tt_app_temperature/build_out/bl602_std/libbl602_std.a(platform_device.o)
UART_SetTxDataLength                              /home/jins/bl_iot_sdk/customer_app/tt_app_temperature/build_out/bl602_std/libbl602_std.a(bl602_uart.o)
UART_TxFifoClear                                  /home/jins/bl_iot_sdk/customer_app/tt_app_temperature/build_out/bl602_std/libbl602_std.a(bl602_uart.o)
UART_TxFreeRun                                    /home/jins/bl_iot_sdk/customer_app/tt_app_temperature/build_out/bl602_std/libbl602_std.a(bl602_uart.o)
                                                  /home/jins/bl_iot_sdk/customer_app/tt_app_temperature/build_out/hal_drv/libhal_drv.a(bl_uart.o)
                                                  /home/jins/bl_iot_sdk/customer_app/tt_app_temperature/build_out/bl602_std/libbl602_std.a(platform_device.o)
Update_SystemCoreClockWith_XTAL                   /home/jins/bl_iot_sdk/customer_app/tt_app_temperature/build_out/bl602_std/libbl602_std.a(bl602_romapi.o)
WIFI_IPC_PUBLIC_IRQHandler                        /home/jins/bl_iot_sdk/customer_app/tt_app_temperature/build_out/bl602_std/libbl602_std.a(interrupt.o)
WIFI_IRQHandler                                   /home/jins/bl_iot_sdk/customer_app/tt_app_temperature/build_out/bl602_std/libbl602_std.a(interrupt.o)
XIP_SFlash_Erase_Need_Lock                        /home/jins/bl_iot_sdk/customer_app/tt_app_temperature/build_out/bl602_std/libbl602_std.a(bl602_romapi.o)
XIP_SFlash_Erase_With_Lock                        /home/jins/bl_iot_sdk/customer_app/tt_app_temperature/build_out/bl602_std/libbl602_std.a(bl602_romapi.o)
XIP_SFlash_GetDeviceId_Need_Lock                  /home/jins/bl_iot_sdk/customer_app/tt_app_temperature/build_out/bl602_std/libbl602_std.a(bl602_romapi.o)
XIP_SFlash_GetJedecId_Need_Lock                   /home/jins/bl_iot_sdk/customer_app/tt_app_temperature/build_out/bl602_std/libbl602_std.a(bl602_romapi.o)
XIP_SFlash_GetUniqueId_Need_Lock                  /home/jins/bl_iot_sdk/customer_app/tt_app_temperature/build_out/bl602_std/libbl602_std.a(bl602_romapi.o)
XIP_SFlash_Opt_Enter                              /home/jins/bl_iot_sdk/customer_app/tt_app_temperature/build_out/bl602_std/libbl602_std.a(bl602_romapi.o)
XIP_SFlash_Opt_Exit                               /home/jins/bl_iot_sdk/customer_app/tt_app_temperature/build_out/bl602_std/libbl602_std.a(bl602_romapi.o)
XIP_SFlash_Read_Need_Lock                         /home/jins/bl_iot_sdk/customer_app/tt_app_temperature/build_out/bl602_std/libbl602_std.a(bl602_romapi.o)
XIP_SFlash_Read_Via_Cache_Need_Lock               /home/jins/bl_iot_sdk/customer_app/tt_app_temperature/build_out/bl602_std/libbl602_std.a(bl602_romapi.o)
                                                  /home/jins/bl_iot_sdk/customer_app/tt_app_temperature/build_out/bl602_std/libbl602_std.a(bl602_hbn.o)
XIP_SFlash_Read_With_Lock                         /home/jins/bl_iot_sdk/customer_app/tt_app_temperature/build_out/bl602_std/libbl602_std.a(bl602_romapi.o)
XIP_SFlash_State_Restore                          /home/jins/bl_iot_sdk/customer_app/tt_app_temperature/build_out/bl602_std/libbl602_std.a(bl602_romapi.o)
XIP_SFlash_State_Save                             /home/jins/bl_iot_sdk/customer_app/tt_app_temperature/build_out/bl602_std/libbl602_std.a(bl602_romapi.o)
XIP_SFlash_Write_Need_Lock                        /home/jins/bl_iot_sdk/customer_app/tt_app_temperature/build_out/bl602_std/libbl602_std.a(bl602_romapi.o)
XIP_SFlash_Write_With_Lock                        /home/jins/bl_iot_sdk/customer_app/tt_app_temperature/build_out/bl602_std/libbl602_std.a(bl602_romapi.o)
__LD_CONFIG_EM_SEL                                /home/jins/bl_iot_sdk/customer_app/tt_app_temperature/build_out/hal_drv/libhal_drv.a(bl_sys.o)
__Vectors                                         /home/jins/bl_iot_sdk/customer_app/tt_app_temperature/build_out/bl602_std/libbl602_std.a(interrupt.o)
__adddf3                                          /home/jins/bl_iot_sdk/toolchain/riscv/Linux/bin/../lib/gcc/riscv64-unknown-elf/8.3.0/rv32imf/ilp32f/libgcc.a(adddf3.o)
                                                  /home/jins/bl_iot_sdk/customer_app/tt_app_temperature/build_out/bl602/libbl602.a(debug.o)
__boot2_flashCfg_end                              /home/jins/bl_iot_sdk/customer_app/tt_app_temperature/build_out/bl602/libbl602.a(start.o)
__boot2_flashCfg_src                              /home/jins/bl_iot_sdk/customer_app/tt_app_temperature/build_out/hal_drv/libhal_drv.a(hal_boot2.o)
__boot2_flashCfg_start                            /home/jins/bl_iot_sdk/customer_app/tt_app_temperature/build_out/bl602/libbl602.a(start.o)
__boot2_pt_addr_end                               /home/jins/bl_iot_sdk/customer_app/tt_app_temperature/build_out/bl602/libbl602.a(start.o)
__boot2_pt_addr_src                               /home/jins/bl_iot_sdk/customer_app/tt_app_temperature/build_out/bl602/libbl602.a(start.o)
__boot2_pt_addr_start                             /home/jins/bl_iot_sdk/customer_app/tt_app_temperature/build_out/bl602/libbl602.a(start.o)
__bss_end                                         /home/jins/bl_iot_sdk/customer_app/tt_app_temperature/build_out/bl602/libbl602.a(start.o)
__bss_start                                       /home/jins/bl_iot_sdk/customer_app/tt_app_temperature/build_out/bl602/libbl602.a(start.o)
__clz_tab                                         /home/jins/bl_iot_sdk/toolchain/riscv/Linux/bin/../lib/gcc/riscv64-unknown-elf/8.3.0/rv32imf/ilp32f/libgcc.a(_clz.o)
                                                  /home/jins/bl_iot_sdk/toolchain/riscv/Linux/bin/../lib/gcc/riscv64-unknown-elf/8.3.0/rv32imf/ilp32f/libgcc.a(_umoddi3.o)
                                                  /home/jins/bl_iot_sdk/toolchain/riscv/Linux/bin/../lib/gcc/riscv64-unknown-elf/8.3.0/rv32imf/ilp32f/libgcc.a(_udivdi3.o)
                                                  /home/jins/bl_iot_sdk/toolchain/riscv/Linux/bin/../lib/gcc/riscv64-unknown-elf/8.3.0/rv32imf/ilp32f/libgcc.a(_clzsi2.o)
__clzsi2                                          /home/jins/bl_iot_sdk/toolchain/riscv/Linux/bin/../lib/gcc/riscv64-unknown-elf/8.3.0/rv32imf/ilp32f/libgcc.a(_clzsi2.o)
                                                  /home/jins/bl_iot_sdk/toolchain/riscv/Linux/bin/../lib/gcc/riscv64-unknown-elf/8.3.0/rv32imf/ilp32f/libgcc.a(subdf3.o)
                                                  /home/jins/bl_iot_sdk/toolchain/riscv/Linux/bin/../lib/gcc/riscv64-unknown-elf/8.3.0/rv32imf/ilp32f/libgcc.a(muldf3.o)
                                                  /home/jins/bl_iot_sdk/toolchain/riscv/Linux/bin/../lib/gcc/riscv64-unknown-elf/8.3.0/rv32imf/ilp32f/libgcc.a(divdf3.o)
                                                  /home/jins/bl_iot_sdk/toolchain/riscv/Linux/bin/../lib/gcc/riscv64-unknown-elf/8.3.0/rv32imf/ilp32f/libgcc.a(adddf3.o)
                                                  /home/jins/bl_iot_sdk/customer_app/tt_app_temperature/build_out/freertos_riscv_ram/libfreertos_riscv_ram.a(tasks.o)
__divdf3                                          /home/jins/bl_iot_sdk/toolchain/riscv/Linux/bin/../lib/gcc/riscv64-unknown-elf/8.3.0/rv32imf/ilp32f/libgcc.a(divdf3.o)
                                                  /home/jins/bl_iot_sdk/customer_app/tt_app_temperature/build_out/bl602/libbl602.a(debug.o)
__eqdf2                                           /home/jins/bl_iot_sdk/toolchain/riscv/Linux/bin/../lib/gcc/riscv64-unknown-elf/8.3.0/rv32imf/ilp32f/libgcc.a(eqdf2.o)
                                                  /home/jins/bl_iot_sdk/customer_app/tt_app_temperature/build_out/bl602/libbl602.a(debug.o)
__fixdfsi                                         /home/jins/bl_iot_sdk/toolchain/riscv/Linux/bin/../lib/gcc/riscv64-unknown-elf/8.3.0/rv32imf/ilp32f/libgcc.a(fixdfsi.o)
                                                  /home/jins/bl_iot_sdk/customer_app/tt_app_temperature/build_out/bl602/libbl602.a(debug.o)
__freertos_irq_stack_top                          /home/jins/bl_iot_sdk/customer_app/tt_app_temperature/build_out/freertos_riscv_ram/libfreertos_riscv_ram.a(port.o)
__gedf2                                           /home/jins/bl_iot_sdk/toolchain/riscv/Linux/bin/../lib/gcc/riscv64-unknown-elf/8.3.0/rv32imf/ilp32f/libgcc.a(gedf2.o)
__global_pointer$                                 /home/jins/bl_iot_sdk/customer_app/tt_app_temperature/build_out/bl602/libbl602.a(start.o)
__gtdf2                                           /home/jins/bl_iot_sdk/toolchain/riscv/Linux/bin/../lib/gcc/riscv64-unknown-elf/8.3.0/rv32imf/ilp32f/libgcc.a(gedf2.o)
                                                  /home/jins/bl_iot_sdk/customer_app/tt_app_temperature/build_out/bl602/libbl602.a(debug.o)
__init_array_end                                  /home/jins/bl_iot_sdk/customer_app/tt_app_temperature/build_out/bl602/libbl602.a(start.o)
__init_array_start                                /home/jins/bl_iot_sdk/customer_app/tt_app_temperature/build_out/bl602/libbl602.a(start.o)
__ledf2                                           /home/jins/bl_iot_sdk/toolchain/riscv/Linux/bin/../lib/gcc/riscv64-unknown-elf/8.3.0/rv32imf/ilp32f/libgcc.a(ledf2.o)
__ltdf2                                           /home/jins/bl_iot_sdk/toolchain/riscv/Linux/bin/../lib/gcc/riscv64-unknown-elf/8.3.0/rv32imf/ilp32f/libgcc.a(ledf2.o)
                                                  /home/jins/bl_iot_sdk/customer_app/tt_app_temperature/build_out/bl602/libbl602.a(debug.o)
__muldf3                                          /home/jins/bl_iot_sdk/toolchain/riscv/Linux/bin/../lib/gcc/riscv64-unknown-elf/8.3.0/rv32imf/ilp32f/libgcc.a(muldf3.o)
                                                  /home/jins/bl_iot_sdk/customer_app/tt_app_temperature/build_out/bl602/libbl602.a(debug.o)
__nedf2                                           /home/jins/bl_iot_sdk/toolchain/riscv/Linux/bin/../lib/gcc/riscv64-unknown-elf/8.3.0/rv32imf/ilp32f/libgcc.a(eqdf2.o)
                                                  /home/jins/bl_iot_sdk/customer_app/tt_app_temperature/build_out/bl602/libbl602.a(debug.o)
__preinit_array_end                               /home/jins/bl_iot_sdk/customer_app/tt_app_temperature/build_out/bl602/libbl602.a(start.o)
__preinit_array_start                             /home/jins/bl_iot_sdk/customer_app/tt_app_temperature/build_out/bl602/libbl602.a(start.o)
__subdf3                                          /home/jins/bl_iot_sdk/toolchain/riscv/Linux/bin/../lib/gcc/riscv64-unknown-elf/8.3.0/rv32imf/ilp32f/libgcc.a(subdf3.o)
                                                  /home/jins/bl_iot_sdk/toolchain/riscv/Linux/bin/../lib/gcc/riscv64-unknown-elf/8.3.0/../../../../riscv64-unknown-elf/lib/rv32imf/ilp32f/libm.a(lib_a-s_modf.o)
__udivdi3                                         /home/jins/bl_iot_sdk/toolchain/riscv/Linux/bin/../lib/gcc/riscv64-unknown-elf/8.3.0/rv32imf/ilp32f/libgcc.a(_udivdi3.o)
                                                  /home/jins/bl_iot_sdk/customer_app/tt_app_temperature/build_out/bl602_std/libbl602_std.a(platform_device.o)
                                                  /home/jins/bl_iot_sdk/customer_app/tt_app_temperature/build_out/bl602/libbl602.a(debug.o)
__umoddi3                                         /home/jins/bl_iot_sdk/toolchain/riscv/Linux/bin/../lib/gcc/riscv64-unknown-elf/8.3.0/rv32imf/ilp32f/libgcc.a(_umoddi3.o)
                                                  /home/jins/bl_iot_sdk/customer_app/tt_app_temperature/build_out/bl602/libbl602.a(debug.o)
__wifi_bss_end                                    /home/jins/bl_iot_sdk/customer_app/tt_app_temperature/build_out/bl602/libbl602.a(start.o)
__wifi_bss_start                                  /home/jins/bl_iot_sdk/customer_app/tt_app_temperature/build_out/bl602/libbl602.a(start.o)
_data_load                                        /home/jins/bl_iot_sdk/customer_app/tt_app_temperature/build_out/bl602/libbl602.a(start.o)
_data_run                                         /home/jins/bl_iot_sdk/customer_app/tt_app_temperature/build_out/bl602/libbl602.a(start.o)
_data_run_end                                     /home/jins/bl_iot_sdk/customer_app/tt_app_temperature/build_out/bl602/libbl602.a(start.o)
_sp_main                                          /home/jins/bl_iot_sdk/customer_app/tt_app_temperature/build_out/bl602/libbl602.a(start.o)
backtrace_now                                     /home/jins/bl_iot_sdk/customer_app/tt_app_temperature/build_out/freertos_riscv_ram/libfreertos_riscv_ram.a(panic_c.o)
                                                  /home/jins/bl_iot_sdk/customer_app/tt_app_temperature/build_out/hal_drv/libhal_drv.a(bl_irq.o)
backtrace_riscv                                   /home/jins/bl_iot_sdk/customer_app/tt_app_temperature/build_out/freertos_riscv_ram/libfreertos_riscv_ram.a(panic_c.o)
bfl_main                                          /home/jins/bl_iot_sdk/customer_app/tt_app_temperature/build_out/tt_app_temperature/libtt_app_temperature.a(main.o)
                                                  /home/jins/bl_iot_sdk/customer_app/tt_app_temperature/build_out/bl602/libbl602.a(start.o)
bflb_platform_clear_time                          /home/jins/bl_iot_sdk/customer_app/tt_app_temperature/build_out/bl602_std/libbl602_std.a(platform_device.o)
bflb_platform_deinit                              /home/jins/bl_iot_sdk/customer_app/tt_app_temperature/build_out/bl602_std/libbl602_std.a(platform_device.o)
bflb_platform_deinit_time                         /home/jins/bl_iot_sdk/customer_app/tt_app_temperature/build_out/bl602_std/libbl602_std.a(platform_device.o)
bflb_platform_deinit_uart_debug_gpio              /home/jins/bl_iot_sdk/customer_app/tt_app_temperature/build_out/bl602_std/libbl602_std.a(platform_gpio.o)
                                                  /home/jins/bl_iot_sdk/customer_app/tt_app_temperature/build_out/bl602_std/libbl602_std.a(platform_device.o)
bflb_platform_delay_ms                            /home/jins/bl_iot_sdk/customer_app/tt_app_temperature/build_out/bl602_std/libbl602_std.a(platform_device.o)
bflb_platform_dump                                /home/jins/bl_iot_sdk/customer_app/tt_app_temperature/build_out/bl602_std/libbl602_std.a(platform_device.o)
bflb_platform_get_input                           /home/jins/bl_iot_sdk/customer_app/tt_app_temperature/build_out/bl602_std/libbl602_std.a(platform_device.o)
bflb_platform_get_random                          /home/jins/bl_iot_sdk/customer_app/tt_app_temperature/build_out/bl602_std/libbl602_std.a(platform_device.o)
bflb_platform_get_time_ms                         /home/jins/bl_iot_sdk/customer_app/tt_app_temperature/build_out/bl602_std/libbl602_std.a(platform_device.o)
bflb_platform_init                                /home/jins/bl_iot_sdk/customer_app/tt_app_temperature/build_out/bl602_std/libbl602_std.a(platform_device.o)
bflb_platform_init_time                           /home/jins/bl_iot_sdk/customer_app/tt_app_temperature/build_out/bl602_std/libbl602_std.a(platform_device.o)
bflb_platform_init_uart_debug_gpio                /home/jins/bl_iot_sdk/customer_app/tt_app_temperature/build_out/bl602_std/libbl602_std.a(platform_gpio.o)
                                                  /home/jins/bl_iot_sdk/customer_app/tt_app_temperature/build_out/bl602_std/libbl602_std.a(platform_device.o)
bflb_platform_print_set                           /home/jins/bl_iot_sdk/customer_app/tt_app_temperature/build_out/bl602_std/libbl602_std.a(platform_device.o)
bflb_platform_printc                              /home/jins/bl_iot_sdk/customer_app/tt_app_temperature/build_out/bl602_std/libbl602_std.a(platform_device.o)
bflb_platform_printf                              /home/jins/bl_iot_sdk/customer_app/tt_app_temperature/build_out/bl602_std/libbl602_std.a(platform_device.o)
                                                  /home/jins/bl_iot_sdk/customer_app/tt_app_temperature/build_out/bl602_std/libbl602_std.a(bl602_common.o)
bflb_platform_prints                              /home/jins/bl_iot_sdk/customer_app/tt_app_temperature/build_out/bl602_std/libbl602_std.a(platform_device.o)
bflb_platform_printx                              /home/jins/bl_iot_sdk/customer_app/tt_app_temperature/build_out/bl602_std/libbl602_std.a(platform_device.o)
bflb_platform_set_alarm_time                      /home/jins/bl_iot_sdk/customer_app/tt_app_temperature/build_out/bl602_std/libbl602_std.a(platform_device.o)
bflb_platform_start_time                          /home/jins/bl_iot_sdk/customer_app/tt_app_temperature/build_out/bl602_std/libbl602_std.a(platform_device.o)
bflb_platform_stop_time                           /home/jins/bl_iot_sdk/customer_app/tt_app_temperature/build_out/bl602_std/libbl602_std.a(platform_device.o)
bflb_platform_uart_dbg_deinit                     /home/jins/bl_iot_sdk/customer_app/tt_app_temperature/build_out/bl602_std/libbl602_std.a(platform_device.o)
bflb_platform_uart_dbg_init                       /home/jins/bl_iot_sdk/customer_app/tt_app_temperature/build_out/bl602_std/libbl602_std.a(platform_device.o)
bflb_platform_usart_dbg_send                      /home/jins/bl_iot_sdk/customer_app/tt_app_temperature/build_out/bl602_std/libbl602_std.a(platform_device.o)
bl602_start                                       /home/jins/bl_iot_sdk/customer_app/tt_app_temperature/build_out/bl602/libbl602.a(start.o)
bl_flash_config_update                            /home/jins/bl_iot_sdk/customer_app/tt_app_temperature/build_out/hal_drv/libhal_drv.a(bl_flash.o)
                                                  /home/jins/bl_iot_sdk/customer_app/tt_app_temperature/build_out/hal_drv/libhal_drv.a(hal_boot2.o)
bl_flash_erase                                    /home/jins/bl_iot_sdk/customer_app/tt_app_temperature/build_out/hal_drv/libhal_drv.a(bl_flash.o)
                                                  /home/jins/bl_iot_sdk/customer_app/tt_app_temperature/build_out/hal_drv/libhal_drv.a(bl_boot2.o)
bl_flash_get_flashCfg                             /home/jins/bl_iot_sdk/customer_app/tt_app_temperature/build_out/hal_drv/libhal_drv.a(bl_flash.o)
bl_flash_read                                     /home/jins/bl_iot_sdk/customer_app/tt_app_temperature/build_out/hal_drv/libhal_drv.a(bl_flash.o)
bl_flash_read_byxip                               /home/jins/bl_iot_sdk/customer_app/tt_app_temperature/build_out/hal_drv/libhal_drv.a(bl_flash.o)
bl_flash_write                                    /home/jins/bl_iot_sdk/customer_app/tt_app_temperature/build_out/hal_drv/libhal_drv.a(bl_flash.o)
                                                  /home/jins/bl_iot_sdk/customer_app/tt_app_temperature/build_out/hal_drv/libhal_drv.a(bl_boot2.o)
bl_gpio_enable_input                              /home/jins/bl_iot_sdk/customer_app/tt_app_temperature/build_out/hal_drv/libhal_drv.a(bl_gpio.o)
                                                  /home/jins/bl_iot_sdk/customer_app/tt_app_temperature/build_out/tt_app_temperature/libtt_app_temperature.a(main.o)
bl_gpio_enable_output                             /home/jins/bl_iot_sdk/customer_app/tt_app_temperature/build_out/hal_drv/libhal_drv.a(bl_gpio.o)
                                                  /home/jins/bl_iot_sdk/customer_app/tt_app_temperature/build_out/tt_app_temperature/libtt_app_temperature.a(main.o)
bl_gpio_input_get                                 /home/jins/bl_iot_sdk/customer_app/tt_app_temperature/build_out/hal_drv/libhal_drv.a(bl_gpio.o)
bl_gpio_input_get_value                           /home/jins/bl_iot_sdk/customer_app/tt_app_temperature/build_out/hal_drv/libhal_drv.a(bl_gpio.o)
                                                  /home/jins/bl_iot_sdk/customer_app/tt_app_temperature/build_out/tt_app_temperature/libtt_app_temperature.a(main.o)
bl_gpio_int_clear                                 /home/jins/bl_iot_sdk/customer_app/tt_app_temperature/build_out/hal_drv/libhal_drv.a(bl_gpio.o)
bl_gpio_intmask                                   /home/jins/bl_iot_sdk/customer_app/tt_app_temperature/build_out/hal_drv/libhal_drv.a(bl_gpio.o)
bl_gpio_output_set                                /home/jins/bl_iot_sdk/customer_app/tt_app_temperature/build_out/hal_drv/libhal_drv.a(bl_gpio.o)
                                                  /home/jins/bl_iot_sdk/customer_app/tt_app_temperature/build_out/tt_app_temperature/libtt_app_temperature.a(main.o)
bl_gpio_register                                  /home/jins/bl_iot_sdk/customer_app/tt_app_temperature/build_out/hal_drv/libhal_drv.a(bl_gpio.o)
bl_irq_ctx_get                                    /home/jins/bl_iot_sdk/customer_app/tt_app_temperature/build_out/hal_drv/libhal_drv.a(bl_irq.o)
bl_irq_default                                    /home/jins/bl_iot_sdk/customer_app/tt_app_temperature/build_out/hal_drv/libhal_drv.a(bl_irq.o)
bl_irq_disable                                    /home/jins/bl_iot_sdk/customer_app/tt_app_temperature/build_out/hal_drv/libhal_drv.a(bl_irq.o)
                                                  /home/jins/bl_iot_sdk/customer_app/tt_app_temperature/build_out/hal_drv/libhal_drv.a(bl_uart.o)
bl_irq_enable                                     /home/jins/bl_iot_sdk/customer_app/tt_app_temperature/build_out/hal_drv/libhal_drv.a(bl_irq.o)
                                                  /home/jins/bl_iot_sdk/customer_app/tt_app_temperature/build_out/hal_drv/libhal_drv.a(bl_gpio.o)
                                                  /home/jins/bl_iot_sdk/customer_app/tt_app_temperature/build_out/hal_drv/libhal_drv.a(bl_uart.o)
bl_irq_exception_trigger                          /home/jins/bl_iot_sdk/customer_app/tt_app_temperature/build_out/hal_drv/libhal_drv.a(bl_irq.o)
bl_irq_init                                       /home/jins/bl_iot_sdk/customer_app/tt_app_temperature/build_out/hal_drv/libhal_drv.a(bl_irq.o)
bl_irq_pending_clear                              /home/jins/bl_iot_sdk/customer_app/tt_app_temperature/build_out/hal_drv/libhal_drv.a(bl_irq.o)
bl_irq_pending_set                                /home/jins/bl_iot_sdk/customer_app/tt_app_temperature/build_out/hal_drv/libhal_drv.a(bl_irq.o)
bl_irq_register                                   /home/jins/bl_iot_sdk/customer_app/tt_app_temperature/build_out/hal_drv/libhal_drv.a(bl_irq.o)
                                                  /home/jins/bl_iot_sdk/customer_app/tt_app_temperature/build_out/hal_drv/libhal_drv.a(bl_uart.o)
bl_irq_register_with_ctx                          /home/jins/bl_iot_sdk/customer_app/tt_app_temperature/build_out/hal_drv/libhal_drv.a(bl_irq.o)
                                                  /home/jins/bl_iot_sdk/customer_app/tt_app_temperature/build_out/hal_drv/libhal_drv.a(bl_gpio.o)
bl_irq_unregister                                 /home/jins/bl_iot_sdk/customer_app/tt_app_temperature/build_out/hal_drv/libhal_drv.a(bl_irq.o)
                                                  /home/jins/bl_iot_sdk/customer_app/tt_app_temperature/build_out/hal_drv/libhal_drv.a(bl_uart.o)
bl_putchar                                        /home/jins/bl_iot_sdk/customer_app/tt_app_temperature/build_out/bl602/libbl602.a(debug.o)
bl_rtc_get_counter                                /home/jins/bl_iot_sdk/customer_app/tt_app_temperature/build_out/hal_drv/libhal_drv.a(bl_rtc.o)
bl_rtc_get_timestamp_ms                           /home/jins/bl_iot_sdk/customer_app/tt_app_temperature/build_out/hal_drv/libhal_drv.a(bl_rtc.o)
                                                  /home/jins/bl_iot_sdk/customer_app/tt_app_temperature/build_out/bltime/libbltime.a(bl_sys_time.o)
bl_rtc_init                                       /home/jins/bl_iot_sdk/customer_app/tt_app_temperature/build_out/hal_drv/libhal_drv.a(bl_rtc.o)
bl_set_gpio_intmod                                /home/jins/bl_iot_sdk/customer_app/tt_app_temperature/build_out/hal_drv/libhal_drv.a(bl_gpio.o)
bl_sys_early_init                                 /home/jins/bl_iot_sdk/customer_app/tt_app_temperature/build_out/hal_drv/libhal_drv.a(bl_sys.o)
bl_sys_em_config                                  /home/jins/bl_iot_sdk/customer_app/tt_app_temperature/build_out/hal_drv/libhal_drv.a(bl_sys.o)
bl_sys_init                                       /home/jins/bl_iot_sdk/customer_app/tt_app_temperature/build_out/hal_drv/libhal_drv.a(bl_sys.o)
bl_sys_isxipaddr                                  /home/jins/bl_iot_sdk/customer_app/tt_app_temperature/build_out/hal_drv/libhal_drv.a(bl_sys.o)
bl_sys_logall_disable                             /home/jins/bl_iot_sdk/customer_app/tt_app_temperature/build_out/hal_drv/libhal_drv.a(bl_sys.o)
bl_sys_logall_enable                              /home/jins/bl_iot_sdk/customer_app/tt_app_temperature/build_out/hal_drv/libhal_drv.a(bl_sys.o)
bl_sys_mfg_config                                 /home/jins/bl_iot_sdk/customer_app/tt_app_temperature/build_out/hal_drv/libhal_drv.a(bl_sys.o)
bl_sys_reset_por                                  /home/jins/bl_iot_sdk/customer_app/tt_app_temperature/build_out/hal_drv/libhal_drv.a(bl_sys.o)
bl_sys_reset_system                               /home/jins/bl_iot_sdk/customer_app/tt_app_temperature/build_out/hal_drv/libhal_drv.a(bl_sys.o)
bl_sys_time_get                                   /home/jins/bl_iot_sdk/customer_app/tt_app_temperature/build_out/bltime/libbltime.a(bl_sys_time.o)
bl_sys_time_sync                                  /home/jins/bl_iot_sdk/customer_app/tt_app_temperature/build_out/bltime/libbltime.a(bl_sys_time.o)
bl_sys_time_sync_init                             /home/jins/bl_iot_sdk/customer_app/tt_app_temperature/build_out/bltime/libbltime.a(bl_sys_time.o)
bl_sys_time_sync_state                            /home/jins/bl_iot_sdk/customer_app/tt_app_temperature/build_out/bltime/libbltime.a(bl_sys_time.o)
                                                  /home/jins/bl_iot_sdk/customer_app/tt_app_temperature/build_out/freertos_riscv_ram/libfreertos_riscv_ram.a(tasks.o)
bl_sys_time_update                                /home/jins/bl_iot_sdk/customer_app/tt_app_temperature/build_out/bltime/libbltime.a(bl_sys_time.o)
bl_uart_data_recv                                 /home/jins/bl_iot_sdk/customer_app/tt_app_temperature/build_out/hal_drv/libhal_drv.a(bl_uart.o)
bl_uart_data_send                                 /home/jins/bl_iot_sdk/customer_app/tt_app_temperature/build_out/hal_drv/libhal_drv.a(bl_uart.o)
                                                  /home/jins/bl_iot_sdk/customer_app/tt_app_temperature/build_out/bl602/libbl602.a(debug.o)
bl_uart_flush                                     /home/jins/bl_iot_sdk/customer_app/tt_app_temperature/build_out/hal_drv/libhal_drv.a(bl_uart.o)
bl_uart_getdefconfig                              /home/jins/bl_iot_sdk/customer_app/tt_app_temperature/build_out/hal_drv/libhal_drv.a(bl_uart.o)
bl_uart_init                                      /home/jins/bl_iot_sdk/customer_app/tt_app_temperature/build_out/hal_drv/libhal_drv.a(bl_uart.o)
                                                  /home/jins/bl_iot_sdk/customer_app/tt_app_temperature/build_out/tt_app_temperature/libtt_app_temperature.a(main.o)
bl_uart_int_disable                               /home/jins/bl_iot_sdk/customer_app/tt_app_temperature/build_out/hal_drv/libhal_drv.a(bl_uart.o)
bl_uart_int_enable                                /home/jins/bl_iot_sdk/customer_app/tt_app_temperature/build_out/hal_drv/libhal_drv.a(bl_uart.o)
bl_uart_int_rx_disable                            /home/jins/bl_iot_sdk/customer_app/tt_app_temperature/build_out/hal_drv/libhal_drv.a(bl_uart.o)
bl_uart_int_rx_enable                             /home/jins/bl_iot_sdk/customer_app/tt_app_temperature/build_out/hal_drv/libhal_drv.a(bl_uart.o)
bl_uart_int_rx_notify_register                    /home/jins/bl_iot_sdk/customer_app/tt_app_temperature/build_out/hal_drv/libhal_drv.a(bl_uart.o)
bl_uart_int_rx_notify_unregister                  /home/jins/bl_iot_sdk/customer_app/tt_app_temperature/build_out/hal_drv/libhal_drv.a(bl_uart.o)
bl_uart_int_tx_disable                            /home/jins/bl_iot_sdk/customer_app/tt_app_temperature/build_out/hal_drv/libhal_drv.a(bl_uart.o)
bl_uart_int_tx_enable                             /home/jins/bl_iot_sdk/customer_app/tt_app_temperature/build_out/hal_drv/libhal_drv.a(bl_uart.o)
bl_uart_int_tx_notify_register                    /home/jins/bl_iot_sdk/customer_app/tt_app_temperature/build_out/hal_drv/libhal_drv.a(bl_uart.o)
bl_uart_int_tx_notify_unregister                  /home/jins/bl_iot_sdk/customer_app/tt_app_temperature/build_out/hal_drv/libhal_drv.a(bl_uart.o)
bl_uart_setbaud                                   /home/jins/bl_iot_sdk/customer_app/tt_app_temperature/build_out/hal_drv/libhal_drv.a(bl_uart.o)
bl_uart_setconfig                                 /home/jins/bl_iot_sdk/customer_app/tt_app_temperature/build_out/hal_drv/libhal_drv.a(bl_uart.o)
chCRCHTalbe                                       /home/jins/bl_iot_sdk/customer_app/tt_app_temperature/build_out/bl602_std/libbl602_std.a(softcrc.o)
chCRCLTalbe                                       /home/jins/bl_iot_sdk/customer_app/tt_app_temperature/build_out/bl602_std/libbl602_std.a(softcrc.o)
clic_clear_pending                                /home/jins/bl_iot_sdk/customer_app/tt_app_temperature/build_out/bl602_std/libbl602_std.a(interrupt.o)
clic_csoft_handler                                /home/jins/bl_iot_sdk/customer_app/tt_app_temperature/build_out/bl602_std/libbl602_std.a(interrupt.o)
clic_disable_interrupt                            /home/jins/bl_iot_sdk/customer_app/tt_app_temperature/build_out/bl602_std/libbl602_std.a(interrupt.o)
                                                  /home/jins/bl_iot_sdk/customer_app/tt_app_temperature/build_out/bl602_std/libbl602_std.a(platform_device.o)
clic_enable_interrupt                             /home/jins/bl_iot_sdk/customer_app/tt_app_temperature/build_out/bl602_std/libbl602_std.a(interrupt.o)
                                                  /home/jins/bl_iot_sdk/customer_app/tt_app_temperature/build_out/bl602_std/libbl602_std.a(platform_device.o)
clic_get_cliccfg                                  /home/jins/bl_iot_sdk/customer_app/tt_app_temperature/build_out/bl602_std/libbl602_std.a(interrupt.o)
clic_get_intcfg                                   /home/jins/bl_iot_sdk/customer_app/tt_app_temperature/build_out/bl602_std/libbl602_std.a(interrupt.o)
clic_mext_handler                                 /home/jins/bl_iot_sdk/customer_app/tt_app_temperature/build_out/bl602_std/libbl602_std.a(interrupt.o)
clic_msip_handler                                 /home/jins/bl_iot_sdk/customer_app/tt_app_temperature/build_out/bl602_std/libbl602_std.a(interrupt.o)
clic_mtimer_handler                               /home/jins/bl_iot_sdk/customer_app/tt_app_temperature/build_out/bl602_std/libbl602_std.a(interrupt.o)
clic_set_cliccfg                                  /home/jins/bl_iot_sdk/customer_app/tt_app_temperature/build_out/bl602_std/libbl602_std.a(interrupt.o)
clic_set_intcfg                                   /home/jins/bl_iot_sdk/customer_app/tt_app_temperature/build_out/bl602_std/libbl602_std.a(interrupt.o)
clic_set_pending                                  /home/jins/bl_iot_sdk/customer_app/tt_app_temperature/build_out/bl602_std/libbl602_std.a(interrupt.o)
crc32Tab                                          /home/jins/bl_iot_sdk/customer_app/tt_app_temperature/build_out/bl602_std/libbl602_std.a(softcrc.o)
eTaskGetState                                     /home/jins/bl_iot_sdk/customer_app/tt_app_temperature/build_out/freertos_riscv_ram/libfreertos_riscv_ram.a(tasks.o)
ecvtbuf                                           /home/jins/bl_iot_sdk/customer_app/tt_app_temperature/build_out/bl602/libbl602.a(debug.o)
exception_entry                                   /home/jins/bl_iot_sdk/customer_app/tt_app_temperature/build_out/hal_drv/libhal_drv.a(bl_irq.o)
                                                  /home/jins/bl_iot_sdk/customer_app/tt_app_temperature/build_out/freertos_riscv_ram/libfreertos_riscv_ram.a(portASM.o)
fcvtbuf                                           /home/jins/bl_iot_sdk/customer_app/tt_app_temperature/build_out/bl602/libbl602.a(debug.o)
freertos_risc_v_trap_handler                      /home/jins/bl_iot_sdk/customer_app/tt_app_temperature/build_out/freertos_riscv_ram/libfreertos_riscv_ram.a(portASM.o)
                                                  /home/jins/bl_iot_sdk/customer_app/tt_app_temperature/build_out/hal_drv/libhal_drv.a(bl_sys.o)
get_f32_reg                                       /home/jins/bl_iot_sdk/customer_app/tt_app_temperature/build_out/freertos_riscv_ram/libfreertos_riscv_ram.a(fp_asm.o)
                                                  /home/jins/bl_iot_sdk/customer_app/tt_app_temperature/build_out/freertos_riscv_ram/libfreertos_riscv_ram.a(misaligned_ldst.o)
hal_boot2_dump                                    /home/jins/bl_iot_sdk/customer_app/tt_app_temperature/build_out/hal_drv/libhal_drv.a(hal_boot2.o)
hal_boot2_get_active_entries                      /home/jins/bl_iot_sdk/customer_app/tt_app_temperature/build_out/hal_drv/libhal_drv.a(hal_boot2.o)
hal_boot2_get_active_partition                    /home/jins/bl_iot_sdk/customer_app/tt_app_temperature/build_out/hal_drv/libhal_drv.a(hal_boot2.o)
hal_boot2_get_flash_addr                          /home/jins/bl_iot_sdk/customer_app/tt_app_temperature/build_out/hal_drv/libhal_drv.a(hal_boot2.o)
                                                  /home/jins/bl_iot_sdk/customer_app/tt_app_temperature/build_out/bl602/libbl602.a(start.o)
hal_boot2_init                                    /home/jins/bl_iot_sdk/customer_app/tt_app_temperature/build_out/hal_drv/libhal_drv.a(hal_boot2.o)
hal_boot2_partition_addr                          /home/jins/bl_iot_sdk/customer_app/tt_app_temperature/build_out/hal_drv/libhal_drv.a(hal_boot2.o)
hal_boot2_partition_addr_active                   /home/jins/bl_iot_sdk/customer_app/tt_app_temperature/build_out/hal_drv/libhal_drv.a(hal_boot2.o)
hal_boot2_partition_addr_inactive                 /home/jins/bl_iot_sdk/customer_app/tt_app_temperature/build_out/hal_drv/libhal_drv.a(hal_boot2.o)
hal_boot2_partition_bus_addr                      /home/jins/bl_iot_sdk/customer_app/tt_app_temperature/build_out/hal_drv/libhal_drv.a(hal_boot2.o)
hal_boot2_partition_bus_addr_active               /home/jins/bl_iot_sdk/customer_app/tt_app_temperature/build_out/hal_drv/libhal_drv.a(hal_boot2.o)
hal_boot2_partition_bus_addr_inactive             /home/jins/bl_iot_sdk/customer_app/tt_app_temperature/build_out/hal_drv/libhal_drv.a(hal_boot2.o)
hal_boot2_set_ptable_opt                          /home/jins/bl_iot_sdk/customer_app/tt_app_temperature/build_out/hal_drv/libhal_drv.a(hal_boot2.o)
hal_boot2_update_ptable                           /home/jins/bl_iot_sdk/customer_app/tt_app_temperature/build_out/hal_drv/libhal_drv.a(hal_boot2.o)
init_gpio_system                                  /home/jins/bl_iot_sdk/customer_app/tt_app_temperature/build_out/tt_app_temperature/libtt_app_temperature.a(main.o)
interrupt_entry                                   /home/jins/bl_iot_sdk/customer_app/tt_app_temperature/build_out/hal_drv/libhal_drv.a(bl_irq.o)
                                                  /home/jins/bl_iot_sdk/customer_app/tt_app_temperature/build_out/freertos_riscv_ram/libfreertos_riscv_ram.a(portASM.o)
memcpy                                            /home/jins/bl_iot_sdk/toolchain/riscv/Linux/bin/../lib/gcc/riscv64-unknown-elf/8.3.0/../../../../riscv64-unknown-elf/lib/rv32imf/ilp32f/libc.a(lib_a-memcpy.o)
                                                  /home/jins/bl_iot_sdk/customer_app/tt_app_temperature/build_out/freertos_riscv_ram/libfreertos_riscv_ram.a(queue.o)
                                                  /home/jins/bl_iot_sdk/customer_app/tt_app_temperature/build_out/hal_drv/libhal_drv.a(bl_uart.o)
                                                  /home/jins/bl_iot_sdk/customer_app/tt_app_temperature/build_out/bl602_std/libbl602_std.a(platform_device.o)
                                                  /home/jins/bl_iot_sdk/customer_app/tt_app_temperature/build_out/hal_drv/libhal_drv.a(bl_flash.o)
                                                  /home/jins/bl_iot_sdk/customer_app/tt_app_temperature/build_out/hal_drv/libhal_drv.a(bl_boot2.o)
memset                                            /home/jins/bl_iot_sdk/toolchain/riscv/Linux/bin/../lib/gcc/riscv64-unknown-elf/8.3.0/../../../../riscv64-unknown-elf/lib/rv32imf/ilp32f/libc.a(lib_a-memset.o)
                                                  /home/jins/bl_iot_sdk/customer_app/tt_app_temperature/build_out/freertos_riscv_ram/libfreertos_riscv_ram.a(heap_5.o)
                                                  /home/jins/bl_iot_sdk/customer_app/tt_app_temperature/build_out/freertos_riscv_ram/libfreertos_riscv_ram.a(tasks.o)
                                                  /home/jins/bl_iot_sdk/customer_app/tt_app_temperature/build_out/bl602_std/libbl602_std.a(bl602_sec_eng.o)
misaligned_load_trap                              /home/jins/bl_iot_sdk/customer_app/tt_app_temperature/build_out/freertos_riscv_ram/libfreertos_riscv_ram.a(misaligned_ldst.o)
                                                  /home/jins/bl_iot_sdk/customer_app/tt_app_temperature/build_out/hal_drv/libhal_drv.a(bl_irq.o)
misaligned_store_trap                             /home/jins/bl_iot_sdk/customer_app/tt_app_temperature/build_out/freertos_riscv_ram/libfreertos_riscv_ram.a(misaligned_ldst.o)
                                                  /home/jins/bl_iot_sdk/customer_app/tt_app_temperature/build_out/hal_drv/libhal_drv.a(bl_irq.o)
modf                                              /home/jins/bl_iot_sdk/toolchain/riscv/Linux/bin/../lib/gcc/riscv64-unknown-elf/8.3.0/../../../../riscv64-unknown-elf/lib/rv32imf/ilp32f/libm.a(lib_a-s_modf.o)
                                                  /home/jins/bl_iot_sdk/customer_app/tt_app_temperature/build_out/bl602/libbl602.a(debug.o)
pTrapNetCounter                                   /home/jins/bl_iot_sdk/customer_app/tt_app_temperature/build_out/freertos_riscv_ram/libfreertos_riscv_ram.a(port.o)
                                                  /home/jins/bl_iot_sdk/customer_app/tt_app_temperature/build_out/freertos_riscv_ram/libfreertos_riscv_ram.a(portASM.o)
pcQueueGetName                                    /home/jins/bl_iot_sdk/customer_app/tt_app_temperature/build_out/freertos_riscv_ram/libfreertos_riscv_ram.a(queue.o)
pcTaskGetName                                     /home/jins/bl_iot_sdk/customer_app/tt_app_temperature/build_out/freertos_riscv_ram/libfreertos_riscv_ram.a(tasks.o)
pcTimerGetName                                    /home/jins/bl_iot_sdk/customer_app/tt_app_temperature/build_out/freertos_riscv_ram/libfreertos_riscv_ram.a(timers.o)
printf                                            /home/jins/bl_iot_sdk/customer_app/tt_app_temperature/build_out/bl602/libbl602.a(debug.o)
                                                  /home/jins/bl_iot_sdk/customer_app/tt_app_temperature/build_out/hal_drv/libhal_drv.a(bl_irq.o)
                                                  /home/jins/bl_iot_sdk/customer_app/tt_app_temperature/build_out/tt_app_temperature/libtt_app_temperature.a(main.o)
pullMachineTimerCompareRegister                   /home/jins/bl_iot_sdk/customer_app/tt_app_temperature/build_out/freertos_riscv_ram/libfreertos_riscv_ram.a(port.o)
                                                  /home/jins/bl_iot_sdk/customer_app/tt_app_temperature/build_out/freertos_riscv_ram/libfreertos_riscv_ram.a(portASM.o)
pullNextTime                                      /home/jins/bl_iot_sdk/customer_app/tt_app_temperature/build_out/freertos_riscv_ram/libfreertos_riscv_ram.a(port.o)
                                                  /home/jins/bl_iot_sdk/customer_app/tt_app_temperature/build_out/freertos_riscv_ram/libfreertos_riscv_ram.a(portASM.o)
put_f32_reg                                       /home/jins/bl_iot_sdk/customer_app/tt_app_temperature/build_out/freertos_riscv_ram/libfreertos_riscv_ram.a(fp_asm.o)
puts                                              /home/jins/bl_iot_sdk/customer_app/tt_app_temperature/build_out/bl602/libbl602.a(debug.o)
                                                  /home/jins/bl_iot_sdk/customer_app/tt_app_temperature/build_out/hal_drv/libhal_drv.a(bl_irq.o)
pvPortCalloc                                      /home/jins/bl_iot_sdk/customer_app/tt_app_temperature/build_out/freertos_riscv_ram/libfreertos_riscv_ram.a(heap_5.o)
pvPortMalloc                                      /home/jins/bl_iot_sdk/customer_app/tt_app_temperature/build_out/freertos_riscv_ram/libfreertos_riscv_ram.a(heap_5.o)
                                                  /home/jins/bl_iot_sdk/customer_app/tt_app_temperature/build_out/freertos_riscv_ram/libfreertos_riscv_ram.a(queue.o)
                                                  /home/jins/bl_iot_sdk/customer_app/tt_app_temperature/build_out/freertos_riscv_ram/libfreertos_riscv_ram.a(timers.o)
                                                  /home/jins/bl_iot_sdk/customer_app/tt_app_temperature/build_out/freertos_riscv_ram/libfreertos_riscv_ram.a(tasks.o)
pvTaskIncrementMutexHeldCount                     /home/jins/bl_iot_sdk/customer_app/tt_app_temperature/build_out/freertos_riscv_ram/libfreertos_riscv_ram.a(tasks.o)
                                                  /home/jins/bl_iot_sdk/customer_app/tt_app_temperature/build_out/freertos_riscv_ram/libfreertos_riscv_ram.a(queue.o)
pvTimerGetTimerID                                 /home/jins/bl_iot_sdk/customer_app/tt_app_temperature/build_out/freertos_riscv_ram/libfreertos_riscv_ram.a(timers.o)
pxCurrentTCB                                      /home/jins/bl_iot_sdk/customer_app/tt_app_temperature/build_out/freertos_riscv_ram/libfreertos_riscv_ram.a(tasks.o)
                                                  /home/jins/bl_iot_sdk/customer_app/tt_app_temperature/build_out/freertos_riscv_ram/libfreertos_riscv_ram.a(portASM.o)
pxPortInitialiseStack                             /home/jins/bl_iot_sdk/customer_app/tt_app_temperature/build_out/freertos_riscv_ram/libfreertos_riscv_ram.a(portASM.o)
                                                  /home/jins/bl_iot_sdk/customer_app/tt_app_temperature/build_out/freertos_riscv_ram/libfreertos_riscv_ram.a(tasks.o)
read_dht22_data                                   /home/jins/bl_iot_sdk/customer_app/tt_app_temperature/build_out/tt_app_temperature/libtt_app_temperature.a(main.o)
snprintf                                          /home/jins/bl_iot_sdk/customer_app/tt_app_temperature/build_out/bl602/libbl602.a(debug.o)
sprintf                                           /home/jins/bl_iot_sdk/customer_app/tt_app_temperature/build_out/bl602/libbl602.a(debug.o)
                                                  /home/jins/bl_iot_sdk/customer_app/tt_app_temperature/build_out/freertos_riscv_ram/libfreertos_riscv_ram.a(tasks.o)
strcmp                                            /home/jins/bl_iot_sdk/toolchain/riscv/Linux/bin/../lib/gcc/riscv64-unknown-elf/8.3.0/../../../../riscv64-unknown-elf/lib/rv32imf/ilp32f/libc.a(lib_a-strcmp.o)
                                                  /home/jins/bl_iot_sdk/customer_app/tt_app_temperature/build_out/hal_drv/libhal_drv.a(hal_boot2.o)
strcpy                                            /home/jins/bl_iot_sdk/toolchain/riscv/Linux/bin/../lib/gcc/riscv64-unknown-elf/8.3.0/../../../../riscv64-unknown-elf/lib/rv32imf/ilp32f/libc.a(lib_a-strcpy.o)
                                                  /home/jins/bl_iot_sdk/customer_app/tt_app_temperature/build_out/freertos_riscv_ram/libfreertos_riscv_ram.a(tasks.o)
strlen                                            /home/jins/bl_iot_sdk/toolchain/riscv/Linux/bin/../lib/gcc/riscv64-unknown-elf/8.3.0/../../../../riscv64-unknown-elf/lib/rv32imf/ilp32f/libc.a(lib_a-strlen.o)
                                                  /home/jins/bl_iot_sdk/customer_app/tt_app_temperature/build_out/freertos_riscv_ram/libfreertos_riscv_ram.a(tasks.o)
                                                  /home/jins/bl_iot_sdk/customer_app/tt_app_temperature/build_out/bl602_std/libbl602_std.a(platform_device.o)
                                                  /home/jins/bl_iot_sdk/customer_app/tt_app_temperature/build_out/bl602/libbl602.a(debug.o)
strnlen                                           /home/jins/bl_iot_sdk/toolchain/riscv/Linux/bin/../lib/gcc/riscv64-unknown-elf/8.3.0/../../../../riscv64-unknown-elf/lib/rv32imf/ilp32f/libc.a(lib_a-strnlen.o)
                                                  /home/jins/bl_iot_sdk/customer_app/tt_app_temperature/build_out/bl602/libbl602.a(debug.o)
sys_log_all_enable                                /home/jins/bl_iot_sdk/customer_app/tt_app_temperature/build_out/hal_drv/libhal_drv.a(bl_sys.o)
                                                  /home/jins/bl_iot_sdk/customer_app/tt_app_temperature/build_out/bl602/libbl602.a(debug.o)
truly_illegal_insn                                /home/jins/bl_iot_sdk/customer_app/tt_app_temperature/build_out/freertos_riscv_ram/libfreertos_riscv_ram.a(misaligned_ldst.o)
ucQueueGetQueueType                               /home/jins/bl_iot_sdk/customer_app/tt_app_temperature/build_out/freertos_riscv_ram/libfreertos_riscv_ram.a(queue.o)
ulTaskNotifyTake                                  /home/jins/bl_iot_sdk/customer_app/tt_app_temperature/build_out/freertos_riscv_ram/libfreertos_riscv_ram.a(tasks.o)
ullNextTime                                       /home/jins/bl_iot_sdk/customer_app/tt_app_temperature/build_out/freertos_riscv_ram/libfreertos_riscv_ram.a(port.o)
uxListRemove                                      /home/jins/bl_iot_sdk/customer_app/tt_app_temperature/build_out/freertos_riscv_ram/libfreertos_riscv_ram.a(list.o)
                                                  /home/jins/bl_iot_sdk/customer_app/tt_app_temperature/build_out/freertos_riscv_ram/libfreertos_riscv_ram.a(timers.o)
                                                  /home/jins/bl_iot_sdk/customer_app/tt_app_temperature/build_out/freertos_riscv_ram/libfreertos_riscv_ram.a(tasks.o)
uxQueueGetQueueNumber                             /home/jins/bl_iot_sdk/customer_app/tt_app_temperature/build_out/freertos_riscv_ram/libfreertos_riscv_ram.a(queue.o)
uxQueueMessagesWaiting                            /home/jins/bl_iot_sdk/customer_app/tt_app_temperature/build_out/freertos_riscv_ram/libfreertos_riscv_ram.a(queue.o)
uxQueueMessagesWaitingFromISR                     /home/jins/bl_iot_sdk/customer_app/tt_app_temperature/build_out/freertos_riscv_ram/libfreertos_riscv_ram.a(queue.o)
uxQueueSpacesAvailable                            /home/jins/bl_iot_sdk/customer_app/tt_app_temperature/build_out/freertos_riscv_ram/libfreertos_riscv_ram.a(queue.o)
uxTaskGetNumberOfTasks                            /home/jins/bl_iot_sdk/customer_app/tt_app_temperature/build_out/freertos_riscv_ram/libfreertos_riscv_ram.a(tasks.o)
uxTaskGetStackHighWaterMark                       /home/jins/bl_iot_sdk/customer_app/tt_app_temperature/build_out/freertos_riscv_ram/libfreertos_riscv_ram.a(tasks.o)
uxTaskGetSystemState                              /home/jins/bl_iot_sdk/customer_app/tt_app_temperature/build_out/freertos_riscv_ram/libfreertos_riscv_ram.a(tasks.o)
uxTaskGetTaskNumber                               /home/jins/bl_iot_sdk/customer_app/tt_app_temperature/build_out/freertos_riscv_ram/libfreertos_riscv_ram.a(tasks.o)
uxTaskPriorityGet                                 /home/jins/bl_iot_sdk/customer_app/tt_app_temperature/build_out/freertos_riscv_ram/libfreertos_riscv_ram.a(tasks.o)
uxTaskPriorityGetFromISR                          /home/jins/bl_iot_sdk/customer_app/tt_app_temperature/build_out/freertos_riscv_ram/libfreertos_riscv_ram.a(tasks.o)
uxTaskResetEventItemValue                         /home/jins/bl_iot_sdk/customer_app/tt_app_temperature/build_out/freertos_riscv_ram/libfreertos_riscv_ram.a(tasks.o)
uxTimerGetTimerNumber                             /home/jins/bl_iot_sdk/customer_app/tt_app_temperature/build_out/freertos_riscv_ram/libfreertos_riscv_ram.a(timers.o)
uxTimerIncrementsForOneTick                       /home/jins/bl_iot_sdk/customer_app/tt_app_temperature/build_out/freertos_riscv_ram/libfreertos_riscv_ram.a(port.o)
                                                  /home/jins/bl_iot_sdk/customer_app/tt_app_temperature/build_out/freertos_riscv_ram/libfreertos_riscv_ram.a(portASM.o)
vApplicationGetIdleTaskMemory                     /home/jins/bl_iot_sdk/customer_app/tt_app_temperature/build_out/freertos_riscv_ram/libfreertos_riscv_ram.a(tasks.o)
vApplicationGetTimerTaskMemory                    /home/jins/bl_iot_sdk/customer_app/tt_app_temperature/build_out/freertos_riscv_ram/libfreertos_riscv_ram.a(timers.o)
vApplicationIdleHook                              /home/jins/bl_iot_sdk/customer_app/tt_app_temperature/build_out/freertos_riscv_ram/libfreertos_riscv_ram.a(tasks.o)
vApplicationMallocFailedHook                      /home/jins/bl_iot_sdk/customer_app/tt_app_temperature/build_out/freertos_riscv_ram/libfreertos_riscv_ram.a(heap_5.o)
vApplicationStackOverflowHook                     /home/jins/bl_iot_sdk/customer_app/tt_app_temperature/build_out/freertos_riscv_ram/libfreertos_riscv_ram.a(tasks.o)
vAssertCalled                                     /home/jins/bl_iot_sdk/customer_app/tt_app_temperature/build_out/freertos_riscv_ram/libfreertos_riscv_ram.a(queue.o)
                                                  /home/jins/bl_iot_sdk/customer_app/tt_app_temperature/build_out/freertos_riscv_ram/libfreertos_riscv_ram.a(heap_5.o)
                                                  /home/jins/bl_iot_sdk/customer_app/tt_app_temperature/build_out/freertos_riscv_ram/libfreertos_riscv_ram.a(port.o)
                                                  /home/jins/bl_iot_sdk/customer_app/tt_app_temperature/build_out/freertos_riscv_ram/libfreertos_riscv_ram.a(timers.o)
                                                  /home/jins/bl_iot_sdk/customer_app/tt_app_temperature/build_out/freertos_riscv_ram/libfreertos_riscv_ram.a(tasks.o)
vListInitialise                                   /home/jins/bl_iot_sdk/customer_app/tt_app_temperature/build_out/freertos_riscv_ram/libfreertos_riscv_ram.a(list.o)
                                                  /home/jins/bl_iot_sdk/customer_app/tt_app_temperature/build_out/freertos_riscv_ram/libfreertos_riscv_ram.a(queue.o)
                                                  /home/jins/bl_iot_sdk/customer_app/tt_app_temperature/build_out/freertos_riscv_ram/libfreertos_riscv_ram.a(timers.o)
                                                  /home/jins/bl_iot_sdk/customer_app/tt_app_temperature/build_out/freertos_riscv_ram/libfreertos_riscv_ram.a(tasks.o)
vListInitialiseItem                               /home/jins/bl_iot_sdk/customer_app/tt_app_temperature/build_out/freertos_riscv_ram/libfreertos_riscv_ram.a(list.o)
                                                  /home/jins/bl_iot_sdk/customer_app/tt_app_temperature/build_out/freertos_riscv_ram/libfreertos_riscv_ram.a(timers.o)
                                                  /home/jins/bl_iot_sdk/customer_app/tt_app_temperature/build_out/freertos_riscv_ram/libfreertos_riscv_ram.a(tasks.o)
vListInsert                                       /home/jins/bl_iot_sdk/customer_app/tt_app_temperature/build_out/freertos_riscv_ram/libfreertos_riscv_ram.a(list.o)
                                                  /home/jins/bl_iot_sdk/customer_app/tt_app_temperature/build_out/freertos_riscv_ram/libfreertos_riscv_ram.a(timers.o)
                                                  /home/jins/bl_iot_sdk/customer_app/tt_app_temperature/build_out/freertos_riscv_ram/libfreertos_riscv_ram.a(tasks.o)
vListInsertEnd                                    /home/jins/bl_iot_sdk/customer_app/tt_app_temperature/build_out/freertos_riscv_ram/libfreertos_riscv_ram.a(list.o)
                                                  /home/jins/bl_iot_sdk/customer_app/tt_app_temperature/build_out/freertos_riscv_ram/libfreertos_riscv_ram.a(tasks.o)
vMainUARTPrintString                              /home/jins/bl_iot_sdk/customer_app/tt_app_temperature/build_out/bl602/libbl602.a(debug.o)
vPortDefineHeapRegions                            /home/jins/bl_iot_sdk/customer_app/tt_app_temperature/build_out/freertos_riscv_ram/libfreertos_riscv_ram.a(heap_5.o)
vPortEndScheduler                                 /home/jins/bl_iot_sdk/customer_app/tt_app_temperature/build_out/freertos_riscv_ram/libfreertos_riscv_ram.a(port.o)
                                                  /home/jins/bl_iot_sdk/customer_app/tt_app_temperature/build_out/freertos_riscv_ram/libfreertos_riscv_ram.a(tasks.o)
vPortFree                                         /home/jins/bl_iot_sdk/customer_app/tt_app_temperature/build_out/freertos_riscv_ram/libfreertos_riscv_ram.a(heap_5.o)
                                                  /home/jins/bl_iot_sdk/customer_app/tt_app_temperature/build_out/freertos_riscv_ram/libfreertos_riscv_ram.a(queue.o)
                                                  /home/jins/bl_iot_sdk/customer_app/tt_app_temperature/build_out/freertos_riscv_ram/libfreertos_riscv_ram.a(timers.o)
                                                  /home/jins/bl_iot_sdk/customer_app/tt_app_temperature/build_out/freertos_riscv_ram/libfreertos_riscv_ram.a(tasks.o)
vPortSetupTimerInterrupt                          /home/jins/bl_iot_sdk/customer_app/tt_app_temperature/build_out/freertos_riscv_ram/libfreertos_riscv_ram.a(port.o)
vQueueAddToRegistry                               /home/jins/bl_iot_sdk/customer_app/tt_app_temperature/build_out/freertos_riscv_ram/libfreertos_riscv_ram.a(queue.o)
                                                  /home/jins/bl_iot_sdk/customer_app/tt_app_temperature/build_out/freertos_riscv_ram/libfreertos_riscv_ram.a(timers.o)
vQueueDelete                                      /home/jins/bl_iot_sdk/customer_app/tt_app_temperature/build_out/freertos_riscv_ram/libfreertos_riscv_ram.a(queue.o)
vQueueSetQueueNumber                              /home/jins/bl_iot_sdk/customer_app/tt_app_temperature/build_out/freertos_riscv_ram/libfreertos_riscv_ram.a(queue.o)
vQueueUnregisterQueue                             /home/jins/bl_iot_sdk/customer_app/tt_app_temperature/build_out/freertos_riscv_ram/libfreertos_riscv_ram.a(queue.o)
vQueueWaitForMessageRestricted                    /home/jins/bl_iot_sdk/customer_app/tt_app_temperature/build_out/freertos_riscv_ram/libfreertos_riscv_ram.a(queue.o)
                                                  /home/jins/bl_iot_sdk/customer_app/tt_app_temperature/build_out/freertos_riscv_ram/libfreertos_riscv_ram.a(timers.o)
vTaskDelay                                        /home/jins/bl_iot_sdk/customer_app/tt_app_temperature/build_out/freertos_riscv_ram/libfreertos_riscv_ram.a(tasks.o)
vTaskDelayUntil                                   /home/jins/bl_iot_sdk/customer_app/tt_app_temperature/build_out/freertos_riscv_ram/libfreertos_riscv_ram.a(tasks.o)
vTaskDelete                                       /home/jins/bl_iot_sdk/customer_app/tt_app_temperature/build_out/freertos_riscv_ram/libfreertos_riscv_ram.a(tasks.o)
vTaskEndScheduler                                 /home/jins/bl_iot_sdk/customer_app/tt_app_temperature/build_out/freertos_riscv_ram/libfreertos_riscv_ram.a(tasks.o)
vTaskEnterCritical                                /home/jins/bl_iot_sdk/customer_app/tt_app_temperature/build_out/freertos_riscv_ram/libfreertos_riscv_ram.a(tasks.o)
                                                  /home/jins/bl_iot_sdk/customer_app/tt_app_temperature/build_out/bltime/libbltime.a(bl_sys_time.o)
                                                  /home/jins/bl_iot_sdk/customer_app/tt_app_temperature/build_out/freertos_riscv_ram/libfreertos_riscv_ram.a(queue.o)
                                                  /home/jins/bl_iot_sdk/customer_app/tt_app_temperature/build_out/freertos_riscv_ram/libfreertos_riscv_ram.a(timers.o)
vTaskExitCritical                                 /home/jins/bl_iot_sdk/customer_app/tt_app_temperature/build_out/freertos_riscv_ram/libfreertos_riscv_ram.a(tasks.o)
                                                  /home/jins/bl_iot_sdk/customer_app/tt_app_temperature/build_out/bltime/libbltime.a(bl_sys_time.o)
                                                  /home/jins/bl_iot_sdk/customer_app/tt_app_temperature/build_out/freertos_riscv_ram/libfreertos_riscv_ram.a(queue.o)
                                                  /home/jins/bl_iot_sdk/customer_app/tt_app_temperature/build_out/freertos_riscv_ram/libfreertos_riscv_ram.a(timers.o)
vTaskGetInfo                                      /home/jins/bl_iot_sdk/customer_app/tt_app_temperature/build_out/freertos_riscv_ram/libfreertos_riscv_ram.a(tasks.o)
vTaskInternalSetTimeOutState                      /home/jins/bl_iot_sdk/customer_app/tt_app_temperature/build_out/freertos_riscv_ram/libfreertos_riscv_ram.a(tasks.o)
                                                  /home/jins/bl_iot_sdk/customer_app/tt_app_temperature/build_out/freertos_riscv_ram/libfreertos_riscv_ram.a(queue.o)
vTaskList                                         /home/jins/bl_iot_sdk/customer_app/tt_app_temperature/build_out/freertos_riscv_ram/libfreertos_riscv_ram.a(tasks.o)
vTaskMissedYield                                  /home/jins/bl_iot_sdk/customer_app/tt_app_temperature/build_out/freertos_riscv_ram/libfreertos_riscv_ram.a(tasks.o)
                                                  /home/jins/bl_iot_sdk/customer_app/tt_app_temperature/build_out/freertos_riscv_ram/libfreertos_riscv_ram.a(queue.o)
vTaskNotifyGiveFromISR                            /home/jins/bl_iot_sdk/customer_app/tt_app_temperature/build_out/freertos_riscv_ram/libfreertos_riscv_ram.a(tasks.o)
vTaskPlaceOnEventList                             /home/jins/bl_iot_sdk/customer_app/tt_app_temperature/build_out/freertos_riscv_ram/libfreertos_riscv_ram.a(tasks.o)
                                                  /home/jins/bl_iot_sdk/customer_app/tt_app_temperature/build_out/freertos_riscv_ram/libfreertos_riscv_ram.a(queue.o)
vTaskPlaceOnEventListRestricted                   /home/jins/bl_iot_sdk/customer_app/tt_app_temperature/build_out/freertos_riscv_ram/libfreertos_riscv_ram.a(tasks.o)
                                                  /home/jins/bl_iot_sdk/customer_app/tt_app_temperature/build_out/freertos_riscv_ram/libfreertos_riscv_ram.a(queue.o)
vTaskPlaceOnUnorderedEventList                    /home/jins/bl_iot_sdk/customer_app/tt_app_temperature/build_out/freertos_riscv_ram/libfreertos_riscv_ram.a(tasks.o)
vTaskPriorityDisinheritAfterTimeout               /home/jins/bl_iot_sdk/customer_app/tt_app_temperature/build_out/freertos_riscv_ram/libfreertos_riscv_ram.a(tasks.o)
                                                  /home/jins/bl_iot_sdk/customer_app/tt_app_temperature/build_out/freertos_riscv_ram/libfreertos_riscv_ram.a(queue.o)
vTaskPrioritySet                                  /home/jins/bl_iot_sdk/customer_app/tt_app_temperature/build_out/freertos_riscv_ram/libfreertos_riscv_ram.a(tasks.o)
vTaskRemoveFromUnorderedEventList                 /home/jins/bl_iot_sdk/customer_app/tt_app_temperature/build_out/freertos_riscv_ram/libfreertos_riscv_ram.a(tasks.o)
vTaskResume                                       /home/jins/bl_iot_sdk/customer_app/tt_app_temperature/build_out/freertos_riscv_ram/libfreertos_riscv_ram.a(tasks.o)
vTaskSetTaskNumber                                /home/jins/bl_iot_sdk/customer_app/tt_app_temperature/build_out/freertos_riscv_ram/libfreertos_riscv_ram.a(tasks.o)
vTaskSetTimeOutState                              /home/jins/bl_iot_sdk/customer_app/tt_app_temperature/build_out/freertos_riscv_ram/libfreertos_riscv_ram.a(tasks.o)
vTaskStartScheduler                               /home/jins/bl_iot_sdk/customer_app/tt_app_temperature/build_out/freertos_riscv_ram/libfreertos_riscv_ram.a(tasks.o)
vTaskStepTickSafe                                 /home/jins/bl_iot_sdk/customer_app/tt_app_temperature/build_out/freertos_riscv_ram/libfreertos_riscv_ram.a(tasks.o)
                                                  /home/jins/bl_iot_sdk/customer_app/tt_app_temperature/build_out/bltime/libbltime.a(bl_sys_time.o)
vTaskSuspend                                      /home/jins/bl_iot_sdk/customer_app/tt_app_temperature/build_out/freertos_riscv_ram/libfreertos_riscv_ram.a(tasks.o)
vTaskSuspendAll                                   /home/jins/bl_iot_sdk/customer_app/tt_app_temperature/build_out/freertos_riscv_ram/libfreertos_riscv_ram.a(tasks.o)
                                                  /home/jins/bl_iot_sdk/customer_app/tt_app_temperature/build_out/freertos_riscv_ram/libfreertos_riscv_ram.a(queue.o)
                                                  /home/jins/bl_iot_sdk/customer_app/tt_app_temperature/build_out/freertos_riscv_ram/libfreertos_riscv_ram.a(heap_5.o)
                                                  /home/jins/bl_iot_sdk/customer_app/tt_app_temperature/build_out/freertos_riscv_ram/libfreertos_riscv_ram.a(timers.o)
vTaskSwitchContext                                /home/jins/bl_iot_sdk/customer_app/tt_app_temperature/build_out/freertos_riscv_ram/libfreertos_riscv_ram.a(tasks.o)
                                                  /home/jins/bl_iot_sdk/customer_app/tt_app_temperature/build_out/freertos_riscv_ram/libfreertos_riscv_ram.a(portASM.o)
vTimerSetReloadMode                               /home/jins/bl_iot_sdk/customer_app/tt_app_temperature/build_out/freertos_riscv_ram/libfreertos_riscv_ram.a(timers.o)
vTimerSetTimerID                                  /home/jins/bl_iot_sdk/customer_app/tt_app_temperature/build_out/freertos_riscv_ram/libfreertos_riscv_ram.a(timers.o)
vTimerSetTimerNumber                              /home/jins/bl_iot_sdk/customer_app/tt_app_temperature/build_out/freertos_riscv_ram/libfreertos_riscv_ram.a(timers.o)
vprint                                            /home/jins/bl_iot_sdk/customer_app/tt_app_temperature/build_out/bl602/libbl602.a(debug.o)
vsnprintf                                         /home/jins/bl_iot_sdk/customer_app/tt_app_temperature/build_out/bl602/libbl602.a(debug.o)
                                                  /home/jins/bl_iot_sdk/customer_app/tt_app_temperature/build_out/bl602_std/libbl602_std.a(platform_device.o)
vsprintf                                          /home/jins/bl_iot_sdk/customer_app/tt_app_temperature/build_out/bl602/libbl602.a(debug.o)
xISRStackTop                                      /home/jins/bl_iot_sdk/customer_app/tt_app_temperature/build_out/freertos_riscv_ram/libfreertos_riscv_ram.a(port.o)
                                                  /home/jins/bl_iot_sdk/customer_app/tt_app_temperature/build_out/freertos_riscv_ram/libfreertos_riscv_ram.a(portASM.o)
xPortGetFreeHeapSize                              /home/jins/bl_iot_sdk/customer_app/tt_app_temperature/build_out/freertos_riscv_ram/libfreertos_riscv_ram.a(heap_5.o)
xPortGetMinimumEverFreeHeapSize                   /home/jins/bl_iot_sdk/customer_app/tt_app_temperature/build_out/freertos_riscv_ram/libfreertos_riscv_ram.a(heap_5.o)
xPortStartFirstTask                               /home/jins/bl_iot_sdk/customer_app/tt_app_temperature/build_out/freertos_riscv_ram/libfreertos_riscv_ram.a(portASM.o)
                                                  /home/jins/bl_iot_sdk/customer_app/tt_app_temperature/build_out/freertos_riscv_ram/libfreertos_riscv_ram.a(port.o)
xPortStartScheduler                               /home/jins/bl_iot_sdk/customer_app/tt_app_temperature/build_out/freertos_riscv_ram/libfreertos_riscv_ram.a(port.o)
                                                  /home/jins/bl_iot_sdk/customer_app/tt_app_temperature/build_out/freertos_riscv_ram/libfreertos_riscv_ram.a(tasks.o)
xQueueCreateCountingSemaphore                     /home/jins/bl_iot_sdk/customer_app/tt_app_temperature/build_out/freertos_riscv_ram/libfreertos_riscv_ram.a(queue.o)
xQueueCreateCountingSemaphoreStatic               /home/jins/bl_iot_sdk/customer_app/tt_app_temperature/build_out/freertos_riscv_ram/libfreertos_riscv_ram.a(queue.o)
xQueueCreateMutex                                 /home/jins/bl_iot_sdk/customer_app/tt_app_temperature/build_out/freertos_riscv_ram/libfreertos_riscv_ram.a(queue.o)
xQueueCreateMutexStatic                           /home/jins/bl_iot_sdk/customer_app/tt_app_temperature/build_out/freertos_riscv_ram/libfreertos_riscv_ram.a(queue.o)
xQueueGenericCreate                               /home/jins/bl_iot_sdk/customer_app/tt_app_temperature/build_out/freertos_riscv_ram/libfreertos_riscv_ram.a(queue.o)
xQueueGenericCreateStatic                         /home/jins/bl_iot_sdk/customer_app/tt_app_temperature/build_out/freertos_riscv_ram/libfreertos_riscv_ram.a(queue.o)
                                                  /home/jins/bl_iot_sdk/customer_app/tt_app_temperature/build_out/freertos_riscv_ram/libfreertos_riscv_ram.a(timers.o)
xQueueGenericReset                                /home/jins/bl_iot_sdk/customer_app/tt_app_temperature/build_out/freertos_riscv_ram/libfreertos_riscv_ram.a(queue.o)
xQueueGenericSend                                 /home/jins/bl_iot_sdk/customer_app/tt_app_temperature/build_out/freertos_riscv_ram/libfreertos_riscv_ram.a(queue.o)
                                                  /home/jins/bl_iot_sdk/customer_app/tt_app_temperature/build_out/freertos_riscv_ram/libfreertos_riscv_ram.a(timers.o)
xQueueGenericSendFromISR                          /home/jins/bl_iot_sdk/customer_app/tt_app_temperature/build_out/freertos_riscv_ram/libfreertos_riscv_ram.a(queue.o)
                                                  /home/jins/bl_iot_sdk/customer_app/tt_app_temperature/build_out/freertos_riscv_ram/libfreertos_riscv_ram.a(timers.o)
xQueueGiveFromISR                                 /home/jins/bl_iot_sdk/customer_app/tt_app_temperature/build_out/freertos_riscv_ram/libfreertos_riscv_ram.a(queue.o)
xQueueGiveMutexRecursive                          /home/jins/bl_iot_sdk/customer_app/tt_app_temperature/build_out/freertos_riscv_ram/libfreertos_riscv_ram.a(queue.o)
xQueueIsQueueEmptyFromISR                         /home/jins/bl_iot_sdk/customer_app/tt_app_temperature/build_out/freertos_riscv_ram/libfreertos_riscv_ram.a(queue.o)
xQueueIsQueueFullFromISR                          /home/jins/bl_iot_sdk/customer_app/tt_app_temperature/build_out/freertos_riscv_ram/libfreertos_riscv_ram.a(queue.o)
xQueuePeek                                        /home/jins/bl_iot_sdk/customer_app/tt_app_temperature/build_out/freertos_riscv_ram/libfreertos_riscv_ram.a(queue.o)
xQueuePeekFromISR                                 /home/jins/bl_iot_sdk/customer_app/tt_app_temperature/build_out/freertos_riscv_ram/libfreertos_riscv_ram.a(queue.o)
xQueueReceive                                     /home/jins/bl_iot_sdk/customer_app/tt_app_temperature/build_out/freertos_riscv_ram/libfreertos_riscv_ram.a(queue.o)
                                                  /home/jins/bl_iot_sdk/customer_app/tt_app_temperature/build_out/freertos_riscv_ram/libfreertos_riscv_ram.a(timers.o)
xQueueReceiveFromISR                              /home/jins/bl_iot_sdk/customer_app/tt_app_temperature/build_out/freertos_riscv_ram/libfreertos_riscv_ram.a(queue.o)
xQueueRegistry                                    /home/jins/bl_iot_sdk/customer_app/tt_app_temperature/build_out/freertos_riscv_ram/libfreertos_riscv_ram.a(queue.o)
xQueueSemaphoreTake                               /home/jins/bl_iot_sdk/customer_app/tt_app_temperature/build_out/freertos_riscv_ram/libfreertos_riscv_ram.a(queue.o)
xQueueTakeMutexRecursive                          /home/jins/bl_iot_sdk/customer_app/tt_app_temperature/build_out/freertos_riscv_ram/libfreertos_riscv_ram.a(queue.o)
xTaskCheckForTimeOut                              /home/jins/bl_iot_sdk/customer_app/tt_app_temperature/build_out/freertos_riscv_ram/libfreertos_riscv_ram.a(tasks.o)
                                                  /home/jins/bl_iot_sdk/customer_app/tt_app_temperature/build_out/freertos_riscv_ram/libfreertos_riscv_ram.a(queue.o)
xTaskCreate                                       /home/jins/bl_iot_sdk/customer_app/tt_app_temperature/build_out/freertos_riscv_ram/libfreertos_riscv_ram.a(tasks.o)
xTaskCreateStatic                                 /home/jins/bl_iot_sdk/customer_app/tt_app_temperature/build_out/freertos_riscv_ram/libfreertos_riscv_ram.a(tasks.o)
                                                  /home/jins/bl_iot_sdk/customer_app/tt_app_temperature/build_out/freertos_riscv_ram/libfreertos_riscv_ram.a(timers.o)
xTaskGenericNotify                                /home/jins/bl_iot_sdk/customer_app/tt_app_temperature/build_out/freertos_riscv_ram/libfreertos_riscv_ram.a(tasks.o)
xTaskGenericNotifyFromISR                         /home/jins/bl_iot_sdk/customer_app/tt_app_temperature/build_out/freertos_riscv_ram/libfreertos_riscv_ram.a(tasks.o)
xTaskGetCurrentTaskHandle                         /home/jins/bl_iot_sdk/customer_app/tt_app_temperature/build_out/freertos_riscv_ram/libfreertos_riscv_ram.a(tasks.o)
                                                  /home/jins/bl_iot_sdk/customer_app/tt_app_temperature/build_out/freertos_riscv_ram/libfreertos_riscv_ram.a(queue.o)
xTaskGetSchedulerState                            /home/jins/bl_iot_sdk/customer_app/tt_app_temperature/build_out/freertos_riscv_ram/libfreertos_riscv_ram.a(tasks.o)
                                                  /home/jins/bl_iot_sdk/customer_app/tt_app_temperature/build_out/freertos_riscv_ram/libfreertos_riscv_ram.a(queue.o)
                                                  /home/jins/bl_iot_sdk/customer_app/tt_app_temperature/build_out/freertos_riscv_ram/libfreertos_riscv_ram.a(timers.o)
xTaskGetTickCount                                 /home/jins/bl_iot_sdk/customer_app/tt_app_temperature/build_out/freertos_riscv_ram/libfreertos_riscv_ram.a(tasks.o)
                                                  /home/jins/bl_iot_sdk/customer_app/tt_app_temperature/build_out/bltime/libbltime.a(bl_sys_time.o)
                                                  /home/jins/bl_iot_sdk/customer_app/tt_app_temperature/build_out/freertos_riscv_ram/libfreertos_riscv_ram.a(timers.o)
xTaskGetTickCount2                                /home/jins/bl_iot_sdk/customer_app/tt_app_temperature/build_out/freertos_riscv_ram/libfreertos_riscv_ram.a(tasks.o)
xTaskGetTickCountFromISR                          /home/jins/bl_iot_sdk/customer_app/tt_app_temperature/build_out/freertos_riscv_ram/libfreertos_riscv_ram.a(tasks.o)
xTaskIncrementTick                                /home/jins/bl_iot_sdk/customer_app/tt_app_temperature/build_out/freertos_riscv_ram/libfreertos_riscv_ram.a(tasks.o)
                                                  /home/jins/bl_iot_sdk/customer_app/tt_app_temperature/build_out/freertos_riscv_ram/libfreertos_riscv_ram.a(portASM.o)
xTaskNotifyStateClear                             /home/jins/bl_iot_sdk/customer_app/tt_app_temperature/build_out/freertos_riscv_ram/libfreertos_riscv_ram.a(tasks.o)
xTaskNotifyWait                                   /home/jins/bl_iot_sdk/customer_app/tt_app_temperature/build_out/freertos_riscv_ram/libfreertos_riscv_ram.a(tasks.o)
xTaskPriorityDisinherit                           /home/jins/bl_iot_sdk/customer_app/tt_app_temperature/build_out/freertos_riscv_ram/libfreertos_riscv_ram.a(tasks.o)
                                                  /home/jins/bl_iot_sdk/customer_app/tt_app_temperature/build_out/freertos_riscv_ram/libfreertos_riscv_ram.a(queue.o)
xTaskPriorityInherit                              /home/jins/bl_iot_sdk/customer_app/tt_app_temperature/build_out/freertos_riscv_ram/libfreertos_riscv_ram.a(tasks.o)
                                                  /home/jins/bl_iot_sdk/customer_app/tt_app_temperature/build_out/freertos_riscv_ram/libfreertos_riscv_ram.a(queue.o)
xTaskRemoveFromEventList                          /home/jins/bl_iot_sdk/customer_app/tt_app_temperature/build_out/freertos_riscv_ram/libfreertos_riscv_ram.a(tasks.o)
                                                  /home/jins/bl_iot_sdk/customer_app/tt_app_temperature/build_out/freertos_riscv_ram/libfreertos_riscv_ram.a(queue.o)
xTaskResumeAll                                    /home/jins/bl_iot_sdk/customer_app/tt_app_temperature/build_out/freertos_riscv_ram/libfreertos_riscv_ram.a(tasks.o)
                                                  /home/jins/bl_iot_sdk/customer_app/tt_app_temperature/build_out/freertos_riscv_ram/libfreertos_riscv_ram.a(queue.o)
                                                  /home/jins/bl_iot_sdk/customer_app/tt_app_temperature/build_out/freertos_riscv_ram/libfreertos_riscv_ram.a(heap_5.o)
                                                  /home/jins/bl_iot_sdk/customer_app/tt_app_temperature/build_out/freertos_riscv_ram/libfreertos_riscv_ram.a(timers.o)
xTaskResumeFromISR                                /home/jins/bl_iot_sdk/customer_app/tt_app_temperature/build_out/freertos_riscv_ram/libfreertos_riscv_ram.a(tasks.o)
xTimerCreate                                      /home/jins/bl_iot_sdk/customer_app/tt_app_temperature/build_out/freertos_riscv_ram/libfreertos_riscv_ram.a(timers.o)
xTimerCreateStatic                                /home/jins/bl_iot_sdk/customer_app/tt_app_temperature/build_out/freertos_riscv_ram/libfreertos_riscv_ram.a(timers.o)
xTimerCreateTimerTask                             /home/jins/bl_iot_sdk/customer_app/tt_app_temperature/build_out/freertos_riscv_ram/libfreertos_riscv_ram.a(timers.o)
                                                  /home/jins/bl_iot_sdk/customer_app/tt_app_temperature/build_out/freertos_riscv_ram/libfreertos_riscv_ram.a(tasks.o)
xTimerGenericCommand                              /home/jins/bl_iot_sdk/customer_app/tt_app_temperature/build_out/freertos_riscv_ram/libfreertos_riscv_ram.a(timers.o)
xTimerGetExpiryTime                               /home/jins/bl_iot_sdk/customer_app/tt_app_temperature/build_out/freertos_riscv_ram/libfreertos_riscv_ram.a(timers.o)
xTimerGetPeriod                                   /home/jins/bl_iot_sdk/customer_app/tt_app_temperature/build_out/freertos_riscv_ram/libfreertos_riscv_ram.a(timers.o)
xTimerGetTimerDaemonTaskHandle                    /home/jins/bl_iot_sdk/customer_app/tt_app_temperature/build_out/freertos_riscv_ram/libfreertos_riscv_ram.a(timers.o)
xTimerIsTimerActive                               /home/jins/bl_iot_sdk/customer_app/tt_app_temperature/build_out/freertos_riscv_ram/libfreertos_riscv_ram.a(timers.o)
xTimerPendFunctionCall                            /home/jins/bl_iot_sdk/customer_app/tt_app_temperature/build_out/freertos_riscv_ram/libfreertos_riscv_ram.a(timers.o)
xTimerPendFunctionCallFromISR                     /home/jins/bl_iot_sdk/customer_app/tt_app_temperature/build_out/freertos_riscv_ram/libfreertos_riscv_ram.a(timers.o)
